
========================================================================

** ELF Header Information

    File Name: .\obj\template.axf

    Machine class: ELFCLASS32 (32-bit)
    Data encoding: ELFDATA2LSB (Little endian)
    Header version: EV_CURRENT (Current version)
    Operating System ABI: none
    ABI Version: 0
    File Type: ET_EXEC (Executable) (2)
    Machine: EM_ARM (ARM)

    Image Entry point: 0x000000f1
    Flags: EF_ARM_HASENTRY + EF_ARM_ABI_FLOAT_SOFT (0x05000202)

    ARM ELF revision: 5 (ABI version 2)

    Conforms to Soft float procedure-call standard

    Built with
    Component: ARM Compiler 5.06 update 6 (build 750) Tool: armasm [4d35ec]
    Component: ARM Compiler 5.06 update 6 (build 750) Tool: armlink [4d35ed]

    Header size: 52 bytes (0x34)
    Program header entry size: 32 bytes (0x20)
    Section header entry size: 40 bytes (0x28)

    Program header entries: 1
    Section header entries: 16

    Program header offset: 164312 (0x000281d8)
    Section header offset: 164344 (0x000281f8)

    Section header string table index: 15

========================================================================

** Program header #0 (PT_LOAD) [PF_X + PF_W + PF_R + PF_ARM_ENTRY]
    Size : 11348 bytes (10264 bytes in file)
    Virtual address: 0x00000000 (Alignment 8)


========================================================================

** Section #1 'ER_RO' (SHT_PROGBITS) [SHF_ALLOC + SHF_EXECINSTR]
    Size   : 10196 bytes (alignment 4)
    Address: 0x00000000

    $d.realdata
    RESET
    __Vectors
        0x00000000:    20000480    ...     DCD    536872064
        0x00000004:    000000f1    ....    DCD    241
        0x00000008:    00000111    ....    DCD    273
        0x0000000c:    000000d5    ....    DCD    213
        0x00000010:    00000000    ....    DCD    0
        0x00000014:    00000000    ....    DCD    0
        0x00000018:    00000000    ....    DCD    0
        0x0000001c:    00000000    ....    DCD    0
        0x00000020:    00000000    ....    DCD    0
        0x00000024:    00000000    ....    DCD    0
        0x00000028:    00000000    ....    DCD    0
        0x0000002c:    00000115    ....    DCD    277
        0x00000030:    00000000    ....    DCD    0
        0x00000034:    00000000    ....    DCD    0
        0x00000038:    00000117    ....    DCD    279
        0x0000003c:    00000119    ....    DCD    281
        0x00000040:    0000011b    ....    DCD    283
        0x00000044:    0000011b    ....    DCD    283
        0x00000048:    0000011b    ....    DCD    283
        0x0000004c:    0000011b    ....    DCD    283
        0x00000050:    0000011b    ....    DCD    283
        0x00000054:    0000011b    ....    DCD    283
        0x00000058:    0000011b    ....    DCD    283
        0x0000005c:    0000011b    ....    DCD    283
        0x00000060:    0000011b    ....    DCD    283
        0x00000064:    00000dc9    ....    DCD    3529
        0x00000068:    0000011b    ....    DCD    283
        0x0000006c:    0000011b    ....    DCD    283
        0x00000070:    00000e21    !...    DCD    3617
        0x00000074:    0000011b    ....    DCD    283
        0x00000078:    0000011b    ....    DCD    283
        0x0000007c:    0000011b    ....    DCD    283
        0x00000080:    0000011b    ....    DCD    283
        0x00000084:    0000011b    ....    DCD    283
        0x00000088:    0000011b    ....    DCD    283
        0x0000008c:    0000011b    ....    DCD    283
        0x00000090:    0000011b    ....    DCD    283
        0x00000094:    0000011b    ....    DCD    283
        0x00000098:    0000011b    ....    DCD    283
        0x0000009c:    0000011b    ....    DCD    283
        0x000000a0:    0000011b    ....    DCD    283
        0x000000a4:    0000011b    ....    DCD    283
        0x000000a8:    0000011b    ....    DCD    283
        0x000000ac:    0000011b    ....    DCD    283
        0x000000b0:    0000011b    ....    DCD    283
        0x000000b4:    0000011b    ....    DCD    283
        0x000000b8:    0000011b    ....    DCD    283
        0x000000bc:    0000011b    ....    DCD    283
    $t
    .ARM.Collect$$$$00000000
    .ARM.Collect$$$$00000001
    __main
    _main_stk
        0x000000c0:    4803        .H      LDR      r0,__lit__00000000 ; [0xd0] = 0x20000480
        0x000000c2:    4685        .F      MOV      sp,r0
    .ARM.Collect$$$$00000004
    _main_scatterload
        0x000000c4:    f000f8a6    ....    BL       __scatterload ; 0x214
    .ARM.Collect$$$$00000008
    .ARM.Collect$$$$0000000A
    .ARM.Collect$$$$0000000B
    __main_after_scatterload
    _main_clock
    _main_cpp_init
    _main_init
        0x000000c8:    4800        .H      LDR      r0,[pc,#0] ; [0xcc] = 0x1ba1
        0x000000ca:    4700        .G      BX       r0
    $d
        0x000000cc:    00001ba1    ....    DCD    7073
    .ARM.Collect$$$$00002712
    __lit__00000000
    .ARM.Collect$$$$0000000D
    .ARM.Collect$$$$0000000F
    __rt_final_cpp
    __rt_final_exit
        0x000000d0:    20000480    ...     DCD    536872064
    $t
    .emb_text
    HardFault_Handler
        0x000000d4:    2004        .       MOVS     r0,#4
        0x000000d6:    4671        qF      MOV      r1,lr
        0x000000d8:    4208        .B      TST      r0,r1
        0x000000da:    d002        ..      BEQ      0xe2 ; HardFault_Handler + 14
        0x000000dc:    f3ef8009    ....    MRS      r0,PSP
        0x000000e0:    e001        ..      B        0xe6 ; HardFault_Handler + 18
        0x000000e2:    f3ef8008    ....    MRS      r0,MSP
        0x000000e6:    4671        qF      MOV      r1,lr
        0x000000e8:    4a00        .J      LDR      r2,[pc,#0] ; [0xec] = 0x79d
        0x000000ea:    4710        .G      BX       r2
    $d
        0x000000ec:    0000079d    ....    DCD    1949
    $t
    .text
    Reset_Handler
        0x000000f0:    480a        .H      LDR      r0,[pc,#40] ; [0x11c] = 0x50000100
        0x000000f2:    490b        .I      LDR      r1,[pc,#44] ; [0x120] = 0x59
        0x000000f4:    6001        .`      STR      r1,[r0,#0]
        0x000000f6:    490b        .I      LDR      r1,[pc,#44] ; [0x124] = 0x16
        0x000000f8:    6001        .`      STR      r1,[r0,#0]
        0x000000fa:    490b        .I      LDR      r1,[pc,#44] ; [0x128] = 0x88
        0x000000fc:    6001        .`      STR      r1,[r0,#0]
        0x000000fe:    4a0b        .J      LDR      r2,[pc,#44] ; [0x12c] = 0x50000024
        0x00000100:    490b        .I      LDR      r1,[pc,#44] ; [0x130] = 0x5aa5
        0x00000102:    6011        .`      STR      r1,[r2,#0]
        0x00000104:    2100        .!      MOVS     r1,#0
        0x00000106:    6001        .`      STR      r1,[r0,#0]
        0x00000108:    480a        .H      LDR      r0,[pc,#40] ; [0x134] = 0xc55
        0x0000010a:    4780        .G      BLX      r0
        0x0000010c:    480a        .H      LDR      r0,[pc,#40] ; [0x138] = 0xc1
        0x0000010e:    4700        .G      BX       r0
    NMI_Handler
        0x00000110:    e7fe        ..      B        NMI_Handler ; 0x110
        0x00000112:    e7fe        ..      B        0x112 ; NMI_Handler + 2
    SVC_Handler
        0x00000114:    e7fe        ..      B        SVC_Handler ; 0x114
    PendSV_Handler
        0x00000116:    e7fe        ..      B        PendSV_Handler ; 0x116
    SysTick_Handler
        0x00000118:    e7fe        ..      B        SysTick_Handler ; 0x118
    Default_Handler
    ADC_IRQHandler
    BOD_IRQHandler
    EINT0_IRQHandler
    EINT1_IRQHandler
    GPAB_IRQHandler
    GPCDEF_IRQHandler
    I2C0_IRQHandler
    I2C1_IRQHandler
    PDMA_IRQHandler
    PWMA_IRQHandler
    PWMB_IRQHandler
    PWRWU_IRQHandler
    RTC_IRQHandler
    SPI0_IRQHandler
    SPI1_IRQHandler
    TMR0_IRQHandler
    TMR2_IRQHandler
    TMR3_IRQHandler
    UART1_IRQHandler
    USBD_IRQHandler
    WDT_IRQHandler
        0x0000011a:    e7fe        ..      B        Default_Handler ; 0x11a
    $d
        0x0000011c:    50000100    ...P    DCD    1342177536
        0x00000120:    00000059    Y...    DCD    89
        0x00000124:    00000016    ....    DCD    22
        0x00000128:    00000088    ....    DCD    136
        0x0000012c:    50000024    $..P    DCD    1342177316
        0x00000130:    00005aa5    .Z..    DCD    23205
        0x00000134:    00000c55    U...    DCD    3157
        0x00000138:    000000c1    ....    DCD    193
    $t
    .text
    __aeabi_uidiv
    __aeabi_uidivmod
        0x0000013c:    b530        0.      PUSH     {r4,r5,lr}
        0x0000013e:    460b        .F      MOV      r3,r1
        0x00000140:    4601        .F      MOV      r1,r0
        0x00000142:    2000        .       MOVS     r0,#0
        0x00000144:    2220         "      MOVS     r2,#0x20
        0x00000146:    2401        .$      MOVS     r4,#1
        0x00000148:    e009        ..      B        0x15e ; __aeabi_uidiv + 34
        0x0000014a:    460d        .F      MOV      r5,r1
        0x0000014c:    40d5        .@      LSRS     r5,r5,r2
        0x0000014e:    429d        .B      CMP      r5,r3
        0x00000150:    d305        ..      BCC      0x15e ; __aeabi_uidiv + 34
        0x00000152:    461d        .F      MOV      r5,r3
        0x00000154:    4095        .@      LSLS     r5,r5,r2
        0x00000156:    1b49        I.      SUBS     r1,r1,r5
        0x00000158:    4625        %F      MOV      r5,r4
        0x0000015a:    4095        .@      LSLS     r5,r5,r2
        0x0000015c:    1940        @.      ADDS     r0,r0,r5
        0x0000015e:    4615        .F      MOV      r5,r2
        0x00000160:    1e52        R.      SUBS     r2,r2,#1
        0x00000162:    2d00        .-      CMP      r5,#0
        0x00000164:    dcf1        ..      BGT      0x14a ; __aeabi_uidiv + 14
        0x00000166:    bd30        0.      POP      {r4,r5,pc}
    .text
    __aeabi_idiv
    __aeabi_idivmod
        0x00000168:    b570        p.      PUSH     {r4-r6,lr}
        0x0000016a:    2400        .$      MOVS     r4,#0
        0x0000016c:    4625        %F      MOV      r5,r4
        0x0000016e:    2800        .(      CMP      r0,#0
        0x00000170:    da01        ..      BGE      0x176 ; __aeabi_idiv + 14
        0x00000172:    2401        .$      MOVS     r4,#1
        0x00000174:    4240        @B      RSBS     r0,r0,#0
        0x00000176:    2900        .)      CMP      r1,#0
        0x00000178:    da01        ..      BGE      0x17e ; __aeabi_idiv + 22
        0x0000017a:    2501        .%      MOVS     r5,#1
        0x0000017c:    4249        IB      RSBS     r1,r1,#0
        0x0000017e:    f7ffffdd    ....    BL       __aeabi_uidiv ; 0x13c
        0x00000182:    42ac        .B      CMP      r4,r5
        0x00000184:    d000        ..      BEQ      0x188 ; __aeabi_idiv + 32
        0x00000186:    4240        @B      RSBS     r0,r0,#0
        0x00000188:    2c00        .,      CMP      r4,#0
        0x0000018a:    d000        ..      BEQ      0x18e ; __aeabi_idiv + 38
        0x0000018c:    4249        IB      RSBS     r1,r1,#0
        0x0000018e:    bd70        p.      POP      {r4-r6,pc}
    .text
    __aeabi_memcpy
    __aeabi_memcpy4
    __aeabi_memcpy8
        0x00000190:    4603        .F      MOV      r3,r0
        0x00000192:    430b        .C      ORRS     r3,r3,r1
        0x00000194:    079b        ..      LSLS     r3,r3,#30
        0x00000196:    d003        ..      BEQ      0x1a0 ; __aeabi_memcpy + 16
        0x00000198:    e009        ..      B        0x1ae ; __aeabi_memcpy + 30
        0x0000019a:    c908        ..      LDM      r1!,{r3}
        0x0000019c:    1f12        ..      SUBS     r2,r2,#4
        0x0000019e:    c008        ..      STM      r0!,{r3}
        0x000001a0:    2a04        .*      CMP      r2,#4
        0x000001a2:    d2fa        ..      BCS      0x19a ; __aeabi_memcpy + 10
        0x000001a4:    e003        ..      B        0x1ae ; __aeabi_memcpy + 30
        0x000001a6:    780b        .x      LDRB     r3,[r1,#0]
        0x000001a8:    7003        .p      STRB     r3,[r0,#0]
        0x000001aa:    1c40        @.      ADDS     r0,r0,#1
        0x000001ac:    1c49        I.      ADDS     r1,r1,#1
        0x000001ae:    1e52        R.      SUBS     r2,r2,#1
        0x000001b0:    d2f9        ..      BCS      0x1a6 ; __aeabi_memcpy + 22
        0x000001b2:    4770        pG      BX       lr
    .text
    __aeabi_uldivmod
        0x000001b4:    b5f0        ..      PUSH     {r4-r7,lr}
        0x000001b6:    b41f        ..      PUSH     {r0-r4}
        0x000001b8:    4606        .F      MOV      r6,r0
        0x000001ba:    2000        .       MOVS     r0,#0
        0x000001bc:    b082        ..      SUB      sp,sp,#8
        0x000001be:    4605        .F      MOV      r5,r0
        0x000001c0:    2440        @$      MOVS     r4,#0x40
        0x000001c2:    9101        ..      STR      r1,[sp,#4]
        0x000001c4:    9000        ..      STR      r0,[sp,#0]
        0x000001c6:    e01b        ..      B        0x200 ; __aeabi_uldivmod + 76
        0x000001c8:    9901        ..      LDR      r1,[sp,#4]
        0x000001ca:    4622        "F      MOV      r2,r4
        0x000001cc:    460f        .F      MOV      r7,r1
        0x000001ce:    4630        0F      MOV      r0,r6
        0x000001d0:    f000f842    ..B.    BL       __aeabi_llsr ; 0x258
        0x000001d4:    9a04        ..      LDR      r2,[sp,#0x10]
        0x000001d6:    9b05        ..      LDR      r3,[sp,#0x14]
        0x000001d8:    1a80        ..      SUBS     r0,r0,r2
        0x000001da:    4199        .A      SBCS     r1,r1,r3
        0x000001dc:    d310        ..      BCC      0x200 ; __aeabi_uldivmod + 76
        0x000001de:    4610        .F      MOV      r0,r2
        0x000001e0:    4619        .F      MOV      r1,r3
        0x000001e2:    4622        "F      MOV      r2,r4
        0x000001e4:    f000f828    ..(.    BL       __aeabi_llsl ; 0x238
        0x000001e8:    1a36        6.      SUBS     r6,r6,r0
        0x000001ea:    418f        .A      SBCS     r7,r7,r1
        0x000001ec:    9701        ..      STR      r7,[sp,#4]
        0x000001ee:    4622        "F      MOV      r2,r4
        0x000001f0:    2001        .       MOVS     r0,#1
        0x000001f2:    2100        .!      MOVS     r1,#0
        0x000001f4:    9f00        ..      LDR      r7,[sp,#0]
        0x000001f6:    f000f81f    ....    BL       __aeabi_llsl ; 0x238
        0x000001fa:    1838        8.      ADDS     r0,r7,r0
        0x000001fc:    414d        MA      ADCS     r5,r5,r1
        0x000001fe:    9000        ..      STR      r0,[sp,#0]
        0x00000200:    4620         F      MOV      r0,r4
        0x00000202:    1e64        d.      SUBS     r4,r4,#1
        0x00000204:    2800        .(      CMP      r0,#0
        0x00000206:    dcdf        ..      BGT      0x1c8 ; __aeabi_uldivmod + 20
        0x00000208:    9b01        ..      LDR      r3,[sp,#4]
        0x0000020a:    9800        ..      LDR      r0,[sp,#0]
        0x0000020c:    4629        )F      MOV      r1,r5
        0x0000020e:    4632        2F      MOV      r2,r6
        0x00000210:    b007        ..      ADD      sp,sp,#0x1c
        0x00000212:    bdf0        ..      POP      {r4-r7,pc}
    .text
    __scatterload
    __scatterload_rt2
        0x00000214:    4c06        .L      LDR      r4,[pc,#24] ; [0x230] = 0x27b4
        0x00000216:    2501        .%      MOVS     r5,#1
        0x00000218:    4e06        .N      LDR      r6,[pc,#24] ; [0x234] = 0x27d4
        0x0000021a:    e005        ..      B        0x228 ; __scatterload + 20
        0x0000021c:    68e3        .h      LDR      r3,[r4,#0xc]
        0x0000021e:    cc07        ..      LDM      r4!,{r0-r2}
        0x00000220:    432b        +C      ORRS     r3,r3,r5
        0x00000222:    3c0c        .<      SUBS     r4,r4,#0xc
        0x00000224:    4798        .G      BLX      r3
        0x00000226:    3410        .4      ADDS     r4,r4,#0x10
        0x00000228:    42b4        .B      CMP      r4,r6
        0x0000022a:    d3f7        ..      BCC      0x21c ; __scatterload + 8
        0x0000022c:    f7ffff4c    ..L.    BL       __main_after_scatterload ; 0xc8
    $d
        0x00000230:    000027b4    .'..    DCD    10164
        0x00000234:    000027d4    .'..    DCD    10196
    $t
    .text
    __aeabi_llsl
    _ll_shift_l
        0x00000238:    b510        ..      PUSH     {r4,lr}
        0x0000023a:    2a20         *      CMP      r2,#0x20
        0x0000023c:    db04        ..      BLT      0x248 ; __aeabi_llsl + 16
        0x0000023e:    4601        .F      MOV      r1,r0
        0x00000240:    3a20         :      SUBS     r2,r2,#0x20
        0x00000242:    4091        .@      LSLS     r1,r1,r2
        0x00000244:    2000        .       MOVS     r0,#0
        0x00000246:    bd10        ..      POP      {r4,pc}
        0x00000248:    4091        .@      LSLS     r1,r1,r2
        0x0000024a:    2320         #      MOVS     r3,#0x20
        0x0000024c:    1a9c        ..      SUBS     r4,r3,r2
        0x0000024e:    4603        .F      MOV      r3,r0
        0x00000250:    40e3        .@      LSRS     r3,r3,r4
        0x00000252:    4319        .C      ORRS     r1,r1,r3
        0x00000254:    4090        .@      LSLS     r0,r0,r2
        0x00000256:    bd10        ..      POP      {r4,pc}
    .text
    __aeabi_llsr
    _ll_ushift_r
        0x00000258:    b510        ..      PUSH     {r4,lr}
        0x0000025a:    2a20         *      CMP      r2,#0x20
        0x0000025c:    db04        ..      BLT      0x268 ; __aeabi_llsr + 16
        0x0000025e:    4608        .F      MOV      r0,r1
        0x00000260:    3a20         :      SUBS     r2,r2,#0x20
        0x00000262:    40d0        .@      LSRS     r0,r0,r2
        0x00000264:    2100        .!      MOVS     r1,#0
        0x00000266:    bd10        ..      POP      {r4,pc}
        0x00000268:    460b        .F      MOV      r3,r1
        0x0000026a:    40d3        .@      LSRS     r3,r3,r2
        0x0000026c:    40d0        .@      LSRS     r0,r0,r2
        0x0000026e:    2420         $      MOVS     r4,#0x20
        0x00000270:    1aa2        ..      SUBS     r2,r4,r2
        0x00000272:    4091        .@      LSLS     r1,r1,r2
        0x00000274:    4308        .C      ORRS     r0,r0,r1
        0x00000276:    4619        .F      MOV      r1,r3
        0x00000278:    bd10        ..      POP      {r4,pc}
        0x0000027a:    0000        ..      MOVS     r0,r0
    i.CLK_EnableModuleClock
    CLK_EnableModuleClock
        0x0000027c:    b51f        ..      PUSH     {r0-r4,lr}
        0x0000027e:    4909        .I      LDR      r1,[pc,#36] ; [0x2a4] = 0x2774
        0x00000280:    c91e        ..      LDM      r1,{r1-r4}
        0x00000282:    9403        ..      STR      r4,[sp,#0xc]
        0x00000284:    466c        lF      MOV      r4,sp
        0x00000286:    c40e        ..      STM      r4!,{r1-r3}
        0x00000288:    0f81        ..      LSRS     r1,r0,#30
        0x0000028a:    008a        ..      LSLS     r2,r1,#2
        0x0000028c:    4669        iF      MOV      r1,sp
        0x0000028e:    588a        .X      LDR      r2,[r1,r2]
        0x00000290:    4905        .I      LDR      r1,[pc,#20] ; [0x2a8] = 0x50000200
        0x00000292:    1851        Q.      ADDS     r1,r2,r1
        0x00000294:    684a        Jh      LDR      r2,[r1,#4]
        0x00000296:    06c3        ..      LSLS     r3,r0,#27
        0x00000298:    0edb        ..      LSRS     r3,r3,#27
        0x0000029a:    2001        .       MOVS     r0,#1
        0x0000029c:    4098        .@      LSLS     r0,r0,r3
        0x0000029e:    4302        .C      ORRS     r2,r2,r0
        0x000002a0:    604a        J`      STR      r2,[r1,#4]
        0x000002a2:    bd1f        ..      POP      {r0-r4,pc}
    $d
        0x000002a4:    00002774    t'..    DCD    10100
        0x000002a8:    50000200    ...P    DCD    1342177792
    $t
    i.CLK_EnablePLL
    CLK_EnablePLL
        0x000002ac:    b5f0        ..      PUSH     {r4-r7,lr}
        0x000002ae:    0007        ..      MOVS     r7,r0
        0x000002b0:    460c        .F      MOV      r4,r1
        0x000002b2:    4856        VH      LDR      r0,[pc,#344] ; [0x40c] = 0x50000200
        0x000002b4:    b085        ..      SUB      sp,sp,#0x14
        0x000002b6:    4954        TI      LDR      r1,[pc,#336] ; [0x408] = 0x10000
        0x000002b8:    6201        .b      STR      r1,[r0,#0x20]
        0x000002ba:    4e55        UN      LDR      r6,[pc,#340] ; [0x410] = 0xb71b00
        0x000002bc:    6801        .h      LDR      r1,[r0,#0]
        0x000002be:    d013        ..      BEQ      0x2e8 ; CLK_EnablePLL + 60
        0x000002c0:    2204        ."      MOVS     r2,#4
        0x000002c2:    4311        .C      ORRS     r1,r1,r2
        0x000002c4:    6001        .`      STR      r1,[r0,#0]
        0x000002c6:    2010        .       MOVS     r0,#0x10
        0x000002c8:    f000fa34    ..4.    BL       CLK_WaitClockReady ; 0x734
        0x000002cc:    2001        .       MOVS     r0,#1
        0x000002ce:    04c0        ..      LSLS     r0,r0,#19
        0x000002d0:    9002        ..      STR      r0,[sp,#8]
        0x000002d2:    4850        PH      LDR      r0,[pc,#320] ; [0x414] = 0x1518000
        0x000002d4:    2504        .%      MOVS     r5,#4
        0x000002d6:    9003        ..      STR      r0,[sp,#0xc]
        0x000002d8:    484f        OH      LDR      r0,[pc,#316] ; [0x418] = 0xfa0a1eff
        0x000002da:    4950        PI      LDR      r1,[pc,#320] ; [0x41c] = 0x5f5e0ff
        0x000002dc:    1820         .      ADDS     r0,r4,r0
        0x000002de:    4288        .B      CMP      r0,r1
        0x000002e0:    d80d        ..      BHI      0x2fe ; CLK_EnablePLL + 82
        0x000002e2:    2000        .       MOVS     r0,#0
        0x000002e4:    9004        ..      STR      r0,[sp,#0x10]
        0x000002e6:    e01c        ..      B        0x322 ; CLK_EnablePLL + 118
        0x000002e8:    2201        ."      MOVS     r2,#1
        0x000002ea:    4311        .C      ORRS     r1,r1,r2
        0x000002ec:    6001        .`      STR      r1,[r0,#0]
        0x000002ee:    4610        .F      MOV      r0,r2
        0x000002f0:    f000fa20    .. .    BL       CLK_WaitClockReady ; 0x734
        0x000002f4:    2000        .       MOVS     r0,#0
        0x000002f6:    2502        .%      MOVS     r5,#2
        0x000002f8:    9603        ..      STR      r6,[sp,#0xc]
        0x000002fa:    9002        ..      STR      r0,[sp,#8]
        0x000002fc:    e7ec        ..      B        0x2d8 ; CLK_EnablePLL + 44
        0x000002fe:    4848        HH      LDR      r0,[pc,#288] ; [0x420] = 0xfd050f7f
        0x00000300:    4948        HI      LDR      r1,[pc,#288] ; [0x424] = 0x2faf07f
        0x00000302:    1820         .      ADDS     r0,r4,r0
        0x00000304:    4288        .B      CMP      r0,r1
        0x00000306:    d803        ..      BHI      0x310 ; CLK_EnablePLL + 100
        0x00000308:    2001        .       MOVS     r0,#1
        0x0000030a:    0064        d.      LSLS     r4,r4,#1
        0x0000030c:    9004        ..      STR      r0,[sp,#0x10]
        0x0000030e:    e008        ..      B        0x322 ; CLK_EnablePLL + 118
        0x00000310:    4845        EH      LDR      r0,[pc,#276] ; [0x428] = 0xfe8287c0
        0x00000312:    4945        EI      LDR      r1,[pc,#276] ; [0x428] = 0xfe8287c0
        0x00000314:    1820         .      ADDS     r0,r4,r0
        0x00000316:    4249        IB      RSBS     r1,r1,#0
        0x00000318:    4288        .B      CMP      r0,r1
        0x0000031a:    d849        I.      BHI      0x3b0 ; CLK_EnablePLL + 260
        0x0000031c:    2003        .       MOVS     r0,#3
        0x0000031e:    00a4        ..      LSLS     r4,r4,#2
        0x00000320:    9004        ..      STR      r0,[sp,#0x10]
        0x00000322:    2600        .&      MOVS     r6,#0
        0x00000324:    43f6        .C      MVNS     r6,r6
        0x00000326:    2000        .       MOVS     r0,#0
        0x00000328:    9000        ..      STR      r0,[sp,#0]
        0x0000032a:    9001        ..      STR      r0,[sp,#4]
        0x0000032c:    e021        !.      B        0x372 ; CLK_EnablePLL + 198
        0x0000032e:    4629        )F      MOV      r1,r5
        0x00000330:    9803        ..      LDR      r0,[sp,#0xc]
        0x00000332:    f7ffff03    ....    BL       __aeabi_uidiv ; 0x13c
        0x00000336:    493d        =I      LDR      r1,[pc,#244] ; [0x42c] = 0xffe795ff
        0x00000338:    4a3d        =J      LDR      r2,[pc,#244] ; [0x430] = 0xcc77bf
        0x0000033a:    1841        A.      ADDS     r1,r0,r1
        0x0000033c:    4291        .B      CMP      r1,r2
        0x0000033e:    d217        ..      BCS      0x370 ; CLK_EnablePLL + 196
        0x00000340:    2202        ."      MOVS     r2,#2
        0x00000342:    4b35        5K      LDR      r3,[pc,#212] ; [0x418] = 0xfa0a1eff
        0x00000344:    4601        .F      MOV      r1,r0
        0x00000346:    4351        QC      MULS     r1,r2,r1
        0x00000348:    1c5b        [.      ADDS     r3,r3,#1
        0x0000034a:    18cf        ..      ADDS     r7,r1,r3
        0x0000034c:    425b        [B      RSBS     r3,r3,#0
        0x0000034e:    429f        .B      CMP      r7,r3
        0x00000350:    d80a        ..      BHI      0x368 ; CLK_EnablePLL + 188
        0x00000352:    42a1        .B      CMP      r1,r4
        0x00000354:    d901        ..      BLS      0x35a ; CLK_EnablePLL + 174
        0x00000356:    1b0b        ..      SUBS     r3,r1,r4
        0x00000358:    e000        ..      B        0x35c ; CLK_EnablePLL + 176
        0x0000035a:    1a63        c.      SUBS     r3,r4,r1
        0x0000035c:    42b3        .B      CMP      r3,r6
        0x0000035e:    d203        ..      BCS      0x368 ; CLK_EnablePLL + 188
        0x00000360:    001e        ..      MOVS     r6,r3
        0x00000362:    9500        ..      STR      r5,[sp,#0]
        0x00000364:    9201        ..      STR      r2,[sp,#4]
        0x00000366:    d003        ..      BEQ      0x370 ; CLK_EnablePLL + 196
        0x00000368:    4932        2I      LDR      r1,[pc,#200] ; [0x434] = 0x201
        0x0000036a:    1c52        R.      ADDS     r2,r2,#1
        0x0000036c:    428a        .B      CMP      r2,r1
        0x0000036e:    d9e8        ..      BLS      0x342 ; CLK_EnablePLL + 150
        0x00000370:    1c6d        m.      ADDS     r5,r5,#1
        0x00000372:    2d21        !-      CMP      r5,#0x21
        0x00000374:    d9db        ..      BLS      0x32e ; CLK_EnablePLL + 130
        0x00000376:    9804        ..      LDR      r0,[sp,#0x10]
        0x00000378:    9902        ..      LDR      r1,[sp,#8]
        0x0000037a:    0380        ..      LSLS     r0,r0,#14
        0x0000037c:    4308        .C      ORRS     r0,r0,r1
        0x0000037e:    9900        ..      LDR      r1,[sp,#0]
        0x00000380:    2201        ."      MOVS     r2,#1
        0x00000382:    0249        I.      LSLS     r1,r1,#9
        0x00000384:    0292        ..      LSLS     r2,r2,#10
        0x00000386:    1a89        ..      SUBS     r1,r1,r2
        0x00000388:    4308        .C      ORRS     r0,r0,r1
        0x0000038a:    9901        ..      LDR      r1,[sp,#4]
        0x0000038c:    1e89        ..      SUBS     r1,r1,#2
        0x0000038e:    4308        .C      ORRS     r0,r0,r1
        0x00000390:    491e        .I      LDR      r1,[pc,#120] ; [0x40c] = 0x50000200
        0x00000392:    6208        .b      STR      r0,[r1,#0x20]
        0x00000394:    2004        .       MOVS     r0,#4
        0x00000396:    f000f9cd    ....    BL       CLK_WaitClockReady ; 0x734
        0x0000039a:    9904        ..      LDR      r1,[sp,#0x10]
        0x0000039c:    9800        ..      LDR      r0,[sp,#0]
        0x0000039e:    1c49        I.      ADDS     r1,r1,#1
        0x000003a0:    4341        AC      MULS     r1,r0,r1
        0x000003a2:    9803        ..      LDR      r0,[sp,#0xc]
        0x000003a4:    f7fffeca    ....    BL       __aeabi_uidiv ; 0x13c
        0x000003a8:    9901        ..      LDR      r1,[sp,#4]
        0x000003aa:    4348        HC      MULS     r0,r1,r0
        0x000003ac:    b005        ..      ADD      sp,sp,#0x14
        0x000003ae:    bdf0        ..      POP      {r4-r7,pc}
        0x000003b0:    2f00        ./      CMP      r7,#0
        0x000003b2:    d00f        ..      BEQ      0x3d4 ; CLK_EnablePLL + 296
        0x000003b4:    4920         I      LDR      r1,[pc,#128] ; [0x438] = 0x8d66f
        0x000003b6:    4815        .H      LDR      r0,[pc,#84] ; [0x40c] = 0x50000200
        0x000003b8:    6201        .b      STR      r1,[r0,#0x20]
        0x000003ba:    2004        .       MOVS     r0,#4
        0x000003bc:    f000f9ba    ....    BL       CLK_WaitClockReady ; 0x734
        0x000003c0:    a01e        ..      ADR      r0,{pc}+0x7c ; 0x43c
        0x000003c2:    6800        .h      LDR      r0,[r0,#0]
        0x000003c4:    9000        ..      STR      r0,[sp,#0]
        0x000003c6:    4811        .H      LDR      r0,[pc,#68] ; [0x40c] = 0x50000200
        0x000003c8:    6a01        .j      LDR      r1,[r0,#0x20]
        0x000003ca:    1300        ..      ASRS     r0,r0,#12
        0x000003cc:    4201        .B      TST      r1,r0
        0x000003ce:    d003        ..      BEQ      0x3d8 ; CLK_EnablePLL + 300
        0x000003d0:    2000        .       MOVS     r0,#0
        0x000003d2:    e7eb        ..      B        0x3ac ; CLK_EnablePLL + 256
        0x000003d4:    491a        .I      LDR      r1,[pc,#104] ; [0x440] = 0xc22e
        0x000003d6:    e7ee        ..      B        0x3b6 ; CLK_EnablePLL + 266
        0x000003d8:    0308        ..      LSLS     r0,r1,#12
        0x000003da:    d500        ..      BPL      0x3de ; CLK_EnablePLL + 306
        0x000003dc:    4e0d        .N      LDR      r6,[pc,#52] ; [0x414] = 0x1518000
        0x000003de:    0388        ..      LSLS     r0,r1,#14
        0x000003e0:    d501        ..      BPL      0x3e6 ; CLK_EnablePLL + 314
        0x000003e2:    4630        0F      MOV      r0,r6
        0x000003e4:    e7e2        ..      B        0x3ac ; CLK_EnablePLL + 256
        0x000003e6:    0408        ..      LSLS     r0,r1,#16
        0x000003e8:    0f80        ..      LSRS     r0,r0,#30
        0x000003ea:    466a        jF      MOV      r2,sp
        0x000003ec:    5c10        .\      LDRB     r0,[r2,r0]
        0x000003ee:    05ca        ..      LSLS     r2,r1,#23
        0x000003f0:    0489        ..      LSLS     r1,r1,#18
        0x000003f2:    0ec9        ..      LSRS     r1,r1,#27
        0x000003f4:    1c89        ..      ADDS     r1,r1,#2
        0x000003f6:    0dd2        ..      LSRS     r2,r2,#23
        0x000003f8:    4341        AC      MULS     r1,r0,r1
        0x000003fa:    08b0        ..      LSRS     r0,r6,#2
        0x000003fc:    1c92        ..      ADDS     r2,r2,#2
        0x000003fe:    4350        PC      MULS     r0,r2,r0
        0x00000400:    f7fffe9c    ....    BL       __aeabi_uidiv ; 0x13c
        0x00000404:    0080        ..      LSLS     r0,r0,#2
        0x00000406:    e7d1        ..      B        0x3ac ; CLK_EnablePLL + 256
    $d
        0x00000408:    00010000    ....    DCD    65536
        0x0000040c:    50000200    ...P    DCD    1342177792
        0x00000410:    00b71b00    ....    DCD    12000000
        0x00000414:    01518000    ..Q.    DCD    22118400
        0x00000418:    fa0a1eff    ....    DCD    4194967295
        0x0000041c:    05f5e0ff    ....    DCD    99999999
        0x00000420:    fd050f7f    ....    DCD    4244967295
        0x00000424:    02faf07f    ....    DCD    49999999
        0x00000428:    fe8287c0    ....    DCD    4269967296
        0x0000042c:    ffe795ff    ....    DCD    4293367295
        0x00000430:    00cc77bf    .w..    DCD    13399999
        0x00000434:    00000201    ....    DCD    513
        0x00000438:    0008d66f    o...    DCD    579183
        0x0000043c:    04020201    ....    DCD    67240449
        0x00000440:    0000c22e    ....    DCD    49710
    $t
    i.CLK_EnableXtalRC
    CLK_EnableXtalRC
        0x00000444:    4902        .I      LDR      r1,[pc,#8] ; [0x450] = 0x50000200
        0x00000446:    680a        .h      LDR      r2,[r1,#0]
        0x00000448:    4302        .C      ORRS     r2,r2,r0
        0x0000044a:    600a        .`      STR      r2,[r1,#0]
        0x0000044c:    4770        pG      BX       lr
    $d
        0x0000044e:    0000        ..      DCW    0
        0x00000450:    50000200    ...P    DCD    1342177792
    $t
    i.CLK_GetCPUFreq
    CLK_GetCPUFreq
        0x00000454:    b510        ..      PUSH     {r4,lr}
        0x00000456:    f000fbb5    ....    BL       SystemCoreClockUpdate ; 0xbc4
        0x0000045a:    4801        .H      LDR      r0,[pc,#4] ; [0x460] = 0x20000000
        0x0000045c:    6800        .h      LDR      r0,[r0,#0]
        0x0000045e:    bd10        ..      POP      {r4,pc}
    $d
        0x00000460:    20000000    ...     DCD    536870912
    $t
    i.CLK_GetHCLKFreq
    CLK_GetHCLKFreq
        0x00000464:    b510        ..      PUSH     {r4,lr}
        0x00000466:    f000fbad    ....    BL       SystemCoreClockUpdate ; 0xbc4
        0x0000046a:    4801        .H      LDR      r0,[pc,#4] ; [0x470] = 0x20000000
        0x0000046c:    6800        .h      LDR      r0,[r0,#0]
        0x0000046e:    bd10        ..      POP      {r4,pc}
    $d
        0x00000470:    20000000    ...     DCD    536870912
    $t
    i.CLK_GetHXTFreq
    CLK_GetHXTFreq
        0x00000474:    4802        .H      LDR      r0,[pc,#8] ; [0x480] = 0x50000200
        0x00000476:    6800        .h      LDR      r0,[r0,#0]
        0x00000478:    07c0        ..      LSLS     r0,r0,#31
        0x0000047a:    d000        ..      BEQ      0x47e ; CLK_GetHXTFreq + 10
        0x0000047c:    4801        .H      LDR      r0,[pc,#4] ; [0x484] = 0xb71b00
        0x0000047e:    4770        pG      BX       lr
    $d
        0x00000480:    50000200    ...P    DCD    1342177792
        0x00000484:    00b71b00    ....    DCD    12000000
    $t
    i.CLK_GetLXTFreq
    CLK_GetLXTFreq
        0x00000488:    4804        .H      LDR      r0,[pc,#16] ; [0x49c] = 0x50000200
        0x0000048a:    6800        .h      LDR      r0,[r0,#0]
        0x0000048c:    0780        ..      LSLS     r0,r0,#30
        0x0000048e:    d502        ..      BPL      0x496 ; CLK_GetLXTFreq + 14
        0x00000490:    2001        .       MOVS     r0,#1
        0x00000492:    03c0        ..      LSLS     r0,r0,#15
        0x00000494:    4770        pG      BX       lr
        0x00000496:    2000        .       MOVS     r0,#0
        0x00000498:    4770        pG      BX       lr
    $d
        0x0000049a:    0000        ..      DCW    0
        0x0000049c:    50000200    ...P    DCD    1342177792
    $t
    i.CLK_GetPCLKFreq
    CLK_GetPCLKFreq
        0x000004a0:    b510        ..      PUSH     {r4,lr}
        0x000004a2:    f000fb8f    ....    BL       SystemCoreClockUpdate ; 0xbc4
        0x000004a6:    4801        .H      LDR      r0,[pc,#4] ; [0x4ac] = 0x20000000
        0x000004a8:    6800        .h      LDR      r0,[r0,#0]
        0x000004aa:    bd10        ..      POP      {r4,pc}
    $d
        0x000004ac:    20000000    ...     DCD    536870912
    $t
    i.CLK_GetPLLClockFreq
    CLK_GetPLLClockFreq
        0x000004b0:    b508        ..      PUSH     {r3,lr}
        0x000004b2:    a011        ..      ADR      r0,{pc}+0x46 ; 0x4f8
        0x000004b4:    6800        .h      LDR      r0,[r0,#0]
        0x000004b6:    9000        ..      STR      r0,[sp,#0]
        0x000004b8:    4810        .H      LDR      r0,[pc,#64] ; [0x4fc] = 0x50000200
        0x000004ba:    6a01        .j      LDR      r1,[r0,#0x20]
        0x000004bc:    1300        ..      ASRS     r0,r0,#12
        0x000004be:    4201        .B      TST      r1,r0
        0x000004c0:    d001        ..      BEQ      0x4c6 ; CLK_GetPLLClockFreq + 22
        0x000004c2:    2000        .       MOVS     r0,#0
        0x000004c4:    bd08        ..      POP      {r3,pc}
        0x000004c6:    0308        ..      LSLS     r0,r1,#12
        0x000004c8:    d501        ..      BPL      0x4ce ; CLK_GetPLLClockFreq + 30
        0x000004ca:    480d        .H      LDR      r0,[pc,#52] ; [0x500] = 0x1518000
        0x000004cc:    e000        ..      B        0x4d0 ; CLK_GetPLLClockFreq + 32
        0x000004ce:    480d        .H      LDR      r0,[pc,#52] ; [0x504] = 0xb71b00
        0x000004d0:    038a        ..      LSLS     r2,r1,#14
        0x000004d2:    d4f7        ..      BMI      0x4c4 ; CLK_GetPLLClockFreq + 20
        0x000004d4:    040a        ..      LSLS     r2,r1,#16
        0x000004d6:    0f92        ..      LSRS     r2,r2,#30
        0x000004d8:    466b        kF      MOV      r3,sp
        0x000004da:    5c9b        .\      LDRB     r3,[r3,r2]
        0x000004dc:    05ca        ..      LSLS     r2,r1,#23
        0x000004de:    0489        ..      LSLS     r1,r1,#18
        0x000004e0:    0dd2        ..      LSRS     r2,r2,#23
        0x000004e2:    0ec9        ..      LSRS     r1,r1,#27
        0x000004e4:    1c89        ..      ADDS     r1,r1,#2
        0x000004e6:    0880        ..      LSRS     r0,r0,#2
        0x000004e8:    1c92        ..      ADDS     r2,r2,#2
        0x000004ea:    4359        YC      MULS     r1,r3,r1
        0x000004ec:    4350        PC      MULS     r0,r2,r0
        0x000004ee:    f7fffe25    ..%.    BL       __aeabi_uidiv ; 0x13c
        0x000004f2:    0080        ..      LSLS     r0,r0,#2
        0x000004f4:    bd08        ..      POP      {r3,pc}
    $d
        0x000004f6:    0000        ..      DCW    0
        0x000004f8:    04020201    ....    DCD    67240449
        0x000004fc:    50000200    ...P    DCD    1342177792
        0x00000500:    01518000    ..Q.    DCD    22118400
        0x00000504:    00b71b00    ....    DCD    12000000
    $t
    i.CLK_GetPLLClockFreq
    CLK_GetPLLClockFreq
        0x00000508:    b508        ..      PUSH     {r3,lr}
        0x0000050a:    a011        ..      ADR      r0,{pc}+0x46 ; 0x550
        0x0000050c:    6800        .h      LDR      r0,[r0,#0]
        0x0000050e:    9000        ..      STR      r0,[sp,#0]
        0x00000510:    4810        .H      LDR      r0,[pc,#64] ; [0x554] = 0x50000200
        0x00000512:    6a01        .j      LDR      r1,[r0,#0x20]
        0x00000514:    1300        ..      ASRS     r0,r0,#12
        0x00000516:    4201        .B      TST      r1,r0
        0x00000518:    d001        ..      BEQ      0x51e ; CLK_GetPLLClockFreq + 22
        0x0000051a:    2000        .       MOVS     r0,#0
        0x0000051c:    bd08        ..      POP      {r3,pc}
        0x0000051e:    0308        ..      LSLS     r0,r1,#12
        0x00000520:    d501        ..      BPL      0x526 ; CLK_GetPLLClockFreq + 30
        0x00000522:    480d        .H      LDR      r0,[pc,#52] ; [0x558] = 0x1518000
        0x00000524:    e000        ..      B        0x528 ; CLK_GetPLLClockFreq + 32
        0x00000526:    480d        .H      LDR      r0,[pc,#52] ; [0x55c] = 0xb71b00
        0x00000528:    038a        ..      LSLS     r2,r1,#14
        0x0000052a:    d4f7        ..      BMI      0x51c ; CLK_GetPLLClockFreq + 20
        0x0000052c:    040a        ..      LSLS     r2,r1,#16
        0x0000052e:    0f92        ..      LSRS     r2,r2,#30
        0x00000530:    466b        kF      MOV      r3,sp
        0x00000532:    5c9b        .\      LDRB     r3,[r3,r2]
        0x00000534:    05ca        ..      LSLS     r2,r1,#23
        0x00000536:    0489        ..      LSLS     r1,r1,#18
        0x00000538:    0dd2        ..      LSRS     r2,r2,#23
        0x0000053a:    0ec9        ..      LSRS     r1,r1,#27
        0x0000053c:    1c89        ..      ADDS     r1,r1,#2
        0x0000053e:    0880        ..      LSRS     r0,r0,#2
        0x00000540:    1c92        ..      ADDS     r2,r2,#2
        0x00000542:    4359        YC      MULS     r1,r3,r1
        0x00000544:    4350        PC      MULS     r0,r2,r0
        0x00000546:    f7fffdf9    ....    BL       __aeabi_uidiv ; 0x13c
        0x0000054a:    0080        ..      LSLS     r0,r0,#2
        0x0000054c:    bd08        ..      POP      {r3,pc}
    $d
        0x0000054e:    0000        ..      DCW    0
        0x00000550:    04020201    ....    DCD    67240449
        0x00000554:    50000200    ...P    DCD    1342177792
        0x00000558:    01518000    ..Q.    DCD    22118400
        0x0000055c:    00b71b00    ....    DCD    12000000
    $t
    i.CLK_SetCoreClock
    CLK_SetCoreClock
        0x00000560:    b5f8        ..      PUSH     {r3-r7,lr}
        0x00000562:    492e        .I      LDR      r1,[pc,#184] ; [0x61c] = 0x50000200
        0x00000564:    68cc        .h      LDR      r4,[r1,#0xc]
        0x00000566:    2210        ."      MOVS     r2,#0x10
        0x00000568:    4b2d        -K      LDR      r3,[pc,#180] ; [0x620] = 0x44aa200
        0x0000056a:    4014        .@      ANDS     r4,r4,r2
        0x0000056c:    4298        .B      CMP      r0,r3
        0x0000056e:    d901        ..      BLS      0x574 ; CLK_SetCoreClock + 20
        0x00000570:    4618        .F      MOV      r0,r3
        0x00000572:    e003        ..      B        0x57c ; CLK_SetCoreClock + 28
        0x00000574:    4a2b        +J      LDR      r2,[pc,#172] ; [0x624] = 0x17d7840
        0x00000576:    4290        .B      CMP      r0,r2
        0x00000578:    d200        ..      BCS      0x57c ; CLK_SetCoreClock + 28
        0x0000057a:    4610        .F      MOV      r0,r2
        0x0000057c:    4a2a        *J      LDR      r2,[pc,#168] ; [0x628] = 0x2faf080
        0x0000057e:    2501        .%      MOVS     r5,#1
        0x00000580:    4290        .B      CMP      r0,r2
        0x00000582:    d901        ..      BLS      0x588 ; CLK_SetCoreClock + 40
        0x00000584:    2650        P&      MOVS     r6,#0x50
        0x00000586:    e000        ..      B        0x58a ; CLK_SetCoreClock + 42
        0x00000588:    2600        .&      MOVS     r6,#0
        0x0000058a:    4a28        (J      LDR      r2,[pc,#160] ; [0x62c] = 0x5000c000
        0x0000058c:    6992        .i      LDR      r2,[r2,#0x18]
        0x0000058e:    2750        P'      MOVS     r7,#0x50
        0x00000590:    433a        :C      ORRS     r2,r2,r7
        0x00000592:    4f26        &O      LDR      r7,[pc,#152] ; [0x62c] = 0x5000c000
        0x00000594:    61ba        .a      STR      r2,[r7,#0x18]
        0x00000596:    680a        .h      LDR      r2,[r1,#0]
        0x00000598:    2704        .'      MOVS     r7,#4
        0x0000059a:    433a        :C      ORRS     r2,r2,r7
        0x0000059c:    600a        .`      STR      r2,[r1,#0]
        0x0000059e:    68ca        .h      LDR      r2,[r1,#0xc]
        0x000005a0:    06d2        ..      LSLS     r2,r2,#27
        0x000005a2:    d5fc        ..      BPL      0x59e ; CLK_SetCoreClock + 62
        0x000005a4:    491d        .I      LDR      r1,[pc,#116] ; [0x61c] = 0x50000200
        0x000005a6:    690a        .i      LDR      r2,[r1,#0x10]
        0x000005a8:    2707        .'      MOVS     r7,#7
        0x000005aa:    433a        :C      ORRS     r2,r2,r7
        0x000005ac:    610a        .a      STR      r2,[r1,#0x10]
        0x000005ae:    6a0a        .j      LDR      r2,[r1,#0x20]
        0x000005b0:    01cf        ..      LSLS     r7,r1,#7
        0x000005b2:    433a        :C      ORRS     r2,r2,r7
        0x000005b4:    620a        .b      STR      r2,[r1,#0x20]
        0x000005b6:    68c9        .h      LDR      r1,[r1,#0xc]
        0x000005b8:    07c9        ..      LSLS     r1,r1,#31
        0x000005ba:    d00e        ..      BEQ      0x5da ; CLK_SetCoreClock + 122
        0x000005bc:    4298        .B      CMP      r0,r3
        0x000005be:    d106        ..      BNE      0x5ce ; CLK_SetCoreClock + 110
        0x000005c0:    0041        A.      LSLS     r1,r0,#1
        0x000005c2:    2000        .       MOVS     r0,#0
        0x000005c4:    f7fffe72    ..r.    BL       CLK_EnablePLL ; 0x2ac
        0x000005c8:    4607        .F      MOV      r7,r0
        0x000005ca:    2502        .%      MOVS     r5,#2
        0x000005cc:    e00f        ..      B        0x5ee ; CLK_SetCoreClock + 142
        0x000005ce:    4601        .F      MOV      r1,r0
        0x000005d0:    2000        .       MOVS     r0,#0
        0x000005d2:    f7fffe6b    ..k.    BL       CLK_EnablePLL ; 0x2ac
        0x000005d6:    4607        .F      MOV      r7,r0
        0x000005d8:    e009        ..      B        0x5ee ; CLK_SetCoreClock + 142
        0x000005da:    4601        .F      MOV      r1,r0
        0x000005dc:    2001        .       MOVS     r0,#1
        0x000005de:    04c0        ..      LSLS     r0,r0,#19
        0x000005e0:    f7fffe64    ..d.    BL       CLK_EnablePLL ; 0x2ac
        0x000005e4:    4607        .F      MOV      r7,r0
        0x000005e6:    480d        .H      LDR      r0,[pc,#52] ; [0x61c] = 0x50000200
        0x000005e8:    68c4        .h      LDR      r4,[r0,#0xc]
        0x000005ea:    2010        .       MOVS     r0,#0x10
        0x000005ec:    4004        .@      ANDS     r4,r4,r0
        0x000005ee:    480f        .H      LDR      r0,[pc,#60] ; [0x62c] = 0x5000c000
        0x000005f0:    6981        .i      LDR      r1,[r0,#0x18]
        0x000005f2:    2250        P"      MOVS     r2,#0x50
        0x000005f4:    4391        .C      BICS     r1,r1,r2
        0x000005f6:    4331        1C      ORRS     r1,r1,r6
        0x000005f8:    6181        .a      STR      r1,[r0,#0x18]
        0x000005fa:    1e69        i.      SUBS     r1,r5,#1
        0x000005fc:    2002        .       MOVS     r0,#2
        0x000005fe:    f000f817    ....    BL       CLK_SetHCLK ; 0x630
        0x00000602:    2c00        .,      CMP      r4,#0
        0x00000604:    d104        ..      BNE      0x610 ; CLK_SetCoreClock + 176
        0x00000606:    4805        .H      LDR      r0,[pc,#20] ; [0x61c] = 0x50000200
        0x00000608:    6802        .h      LDR      r2,[r0,#0]
        0x0000060a:    2104        .!      MOVS     r1,#4
        0x0000060c:    438a        .C      BICS     r2,r2,r1
        0x0000060e:    6002        .`      STR      r2,[r0,#0]
        0x00000610:    4629        )F      MOV      r1,r5
        0x00000612:    4638        8F      MOV      r0,r7
        0x00000614:    f7fffd92    ....    BL       __aeabi_uidiv ; 0x13c
        0x00000618:    bdf8        ..      POP      {r3-r7,pc}
    $d
        0x0000061a:    0000        ..      DCW    0
        0x0000061c:    50000200    ...P    DCD    1342177792
        0x00000620:    044aa200    ..J.    DCD    72000000
        0x00000624:    017d7840    @x}.    DCD    25000000
        0x00000628:    02faf080    ....    DCD    50000000
        0x0000062c:    5000c000    ...P    DCD    1342226432
    $t
    i.CLK_SetHCLK
    CLK_SetHCLK
        0x00000630:    b570        p.      PUSH     {r4-r6,lr}
        0x00000632:    4c10        .L      LDR      r4,[pc,#64] ; [0x674] = 0x50000200
        0x00000634:    68e5        .h      LDR      r5,[r4,#0xc]
        0x00000636:    2610        .&      MOVS     r6,#0x10
        0x00000638:    6822        "h      LDR      r2,[r4,#0]
        0x0000063a:    4035        5@      ANDS     r5,r5,r6
        0x0000063c:    2304        .#      MOVS     r3,#4
        0x0000063e:    431a        .C      ORRS     r2,r2,r3
        0x00000640:    6022        "`      STR      r2,[r4,#0]
        0x00000642:    68e2        .h      LDR      r2,[r4,#0xc]
        0x00000644:    06d2        ..      LSLS     r2,r2,#27
        0x00000646:    d5fc        ..      BPL      0x642 ; CLK_SetHCLK + 18
        0x00000648:    6922        "i      LDR      r2,[r4,#0x10]
        0x0000064a:    2307        .#      MOVS     r3,#7
        0x0000064c:    431a        .C      ORRS     r2,r2,r3
        0x0000064e:    6122        "a      STR      r2,[r4,#0x10]
        0x00000650:    69a2        .i      LDR      r2,[r4,#0x18]
        0x00000652:    0912        ..      LSRS     r2,r2,#4
        0x00000654:    0112        ..      LSLS     r2,r2,#4
        0x00000656:    430a        .C      ORRS     r2,r2,r1
        0x00000658:    61a2        .a      STR      r2,[r4,#0x18]
        0x0000065a:    6921        !i      LDR      r1,[r4,#0x10]
        0x0000065c:    4399        .C      BICS     r1,r1,r3
        0x0000065e:    4301        .C      ORRS     r1,r1,r0
        0x00000660:    6121        !a      STR      r1,[r4,#0x10]
        0x00000662:    f000faaf    ....    BL       SystemCoreClockUpdate ; 0xbc4
        0x00000666:    2d00        .-      CMP      r5,#0
        0x00000668:    d102        ..      BNE      0x670 ; CLK_SetHCLK + 64
        0x0000066a:    6820         h      LDR      r0,[r4,#0]
        0x0000066c:    43b0        .C      BICS     r0,r0,r6
        0x0000066e:    6020         `      STR      r0,[r4,#0]
        0x00000670:    bd70        p.      POP      {r4-r6,pc}
    $d
        0x00000672:    0000        ..      DCW    0
        0x00000674:    50000200    ...P    DCD    1342177792
    $t
    i.CLK_SetModuleClock
    CLK_SetModuleClock
        0x00000678:    b5f0        ..      PUSH     {r4-r7,lr}
        0x0000067a:    4b29        )K      LDR      r3,[pc,#164] ; [0x720] = 0x275c
        0x0000067c:    b086        ..      SUB      sp,sp,#0x18
        0x0000067e:    461c        .F      MOV      r4,r3
        0x00000680:    3408        .4      ADDS     r4,r4,#8
        0x00000682:    ccf0        ..      LDM      r4,{r4-r7}
        0x00000684:    9400        ..      STR      r4,[sp,#0]
        0x00000686:    ac01        ..      ADD      r4,sp,#4
        0x00000688:    c4e0        ..      STM      r4!,{r5-r7}
        0x0000068a:    cb18        ..      LDM      r3,{r3,r4}
        0x0000068c:    9304        ..      STR      r3,[sp,#0x10]
        0x0000068e:    0e43        C.      LSRS     r3,r0,#25
        0x00000690:    9405        ..      STR      r4,[sp,#0x14]
        0x00000692:    075b        [.      LSLS     r3,r3,#29
        0x00000694:    d02d        -.      BEQ      0x6f2 ; CLK_SetModuleClock + 122
        0x00000696:    0083        ..      LSLS     r3,r0,#2
        0x00000698:    0f9b        ..      LSRS     r3,r3,#30
        0x0000069a:    009b        ..      LSLS     r3,r3,#2
        0x0000069c:    466c        lF      MOV      r4,sp
        0x0000069e:    58e3        .X      LDR      r3,[r4,r3]
        0x000006a0:    4c20         L      LDR      r4,[pc,#128] ; [0x724] = 0x50000210
        0x000006a2:    191b        ..      ADDS     r3,r3,r4
        0x000006a4:    0104        ..      LSLS     r4,r0,#4
        0x000006a6:    0f65        e.      LSRS     r5,r4,#29
        0x000006a8:    01c4        ..      LSLS     r4,r0,#7
        0x000006aa:    0ee4        ..      LSRS     r4,r4,#27
        0x000006ac:    40a5        .@      LSLS     r5,r5,r4
        0x000006ae:    681c        .h      LDR      r4,[r3,#0]
        0x000006b0:    43ac        .C      BICS     r4,r4,r5
        0x000006b2:    430c        .C      ORRS     r4,r4,r1
        0x000006b4:    601c        .`      STR      r4,[r3,#0]
        0x000006b6:    4b1b        .K      LDR      r3,[pc,#108] ; [0x724] = 0x50000210
        0x000006b8:    4c1b        .L      LDR      r4,[pc,#108] ; [0x728] = 0x57c00014
        0x000006ba:    3b10        .;      SUBS     r3,r3,#0x10
        0x000006bc:    42a0        .B      CMP      r0,r4
        0x000006be:    d103        ..      BNE      0x6c8 ; CLK_SetModuleClock + 80
        0x000006c0:    69dd        .i      LDR      r5,[r3,#0x1c]
        0x000006c2:    24ff        .$      MOVS     r4,#0xff
        0x000006c4:    3401        .4      ADDS     r4,#1
        0x000006c6:    e010        ..      B        0x6ea ; CLK_SetModuleClock + 114
        0x000006c8:    4c18        .L      LDR      r4,[pc,#96] ; [0x72c] = 0x57e00015
        0x000006ca:    42a0        .B      CMP      r0,r4
        0x000006cc:    d107        ..      BNE      0x6de ; CLK_SetModuleClock + 102
        0x000006ce:    69dc        .i      LDR      r4,[r3,#0x1c]
        0x000006d0:    2501        .%      MOVS     r5,#1
        0x000006d2:    026d        m.      LSLS     r5,r5,#9
        0x000006d4:    43ac        .C      BICS     r4,r4,r5
        0x000006d6:    4029        )@      ANDS     r1,r1,r5
        0x000006d8:    430c        .C      ORRS     r4,r4,r1
        0x000006da:    61dc        .a      STR      r4,[r3,#0x1c]
        0x000006dc:    e009        ..      B        0x6f2 ; CLK_SetModuleClock + 122
        0x000006de:    4c14        .L      LDR      r4,[pc,#80] ; [0x730] = 0x66400016
        0x000006e0:    42a0        .B      CMP      r0,r4
        0x000006e2:    d106        ..      BNE      0x6f2 ; CLK_SetModuleClock + 122
        0x000006e4:    69dd        .i      LDR      r5,[r3,#0x1c]
        0x000006e6:    2401        .$      MOVS     r4,#1
        0x000006e8:    02a4        ..      LSLS     r4,r4,#10
        0x000006ea:    43a5        .C      BICS     r5,r5,r4
        0x000006ec:    4021        !@      ANDS     r1,r1,r4
        0x000006ee:    430d        .C      ORRS     r5,r5,r1
        0x000006f0:    61dd        .a      STR      r5,[r3,#0x1c]
        0x000006f2:    0a83        ..      LSRS     r3,r0,#10
        0x000006f4:    0619        ..      LSLS     r1,r3,#24
        0x000006f6:    0e09        ..      LSRS     r1,r1,#24
        0x000006f8:    d00f        ..      BEQ      0x71a ; CLK_SetModuleClock + 162
        0x000006fa:    0301        ..      LSLS     r1,r0,#12
        0x000006fc:    0f89        ..      LSRS     r1,r1,#30
        0x000006fe:    0089        ..      LSLS     r1,r1,#2
        0x00000700:    ac04        ..      ADD      r4,sp,#0x10
        0x00000702:    5861        aX      LDR      r1,[r4,r1]
        0x00000704:    4c07        .L      LDR      r4,[pc,#28] ; [0x724] = 0x50000210
        0x00000706:    0580        ..      LSLS     r0,r0,#22
        0x00000708:    3408        .4      ADDS     r4,r4,#8
        0x0000070a:    1909        ..      ADDS     r1,r1,r4
        0x0000070c:    b2db        ..      UXTB     r3,r3
        0x0000070e:    0ec0        ..      LSRS     r0,r0,#27
        0x00000710:    4083        .@      LSLS     r3,r3,r0
        0x00000712:    6808        .h      LDR      r0,[r1,#0]
        0x00000714:    4398        .C      BICS     r0,r0,r3
        0x00000716:    4310        .C      ORRS     r0,r0,r2
        0x00000718:    6008        .`      STR      r0,[r1,#0]
        0x0000071a:    b006        ..      ADD      sp,sp,#0x18
        0x0000071c:    bdf0        ..      POP      {r4-r7,pc}
    $d
        0x0000071e:    0000        ..      DCW    0
        0x00000720:    0000275c    \'..    DCD    10076
        0x00000724:    50000210    ...P    DCD    1342177808
        0x00000728:    57c00014    ...W    DCD    1472200724
        0x0000072c:    57e00015    ...W    DCD    1474297877
        0x00000730:    66400016    ..@f    DCD    1715470358
    $t
    i.CLK_WaitClockReady
    CLK_WaitClockReady
        0x00000734:    b510        ..      PUSH     {r4,lr}
        0x00000736:    4604        .F      MOV      r4,r0
        0x00000738:    4907        .I      LDR      r1,[pc,#28] ; [0x758] = 0x124f80
        0x0000073a:    4b08        .K      LDR      r3,[pc,#32] ; [0x75c] = 0x50000200
        0x0000073c:    e005        ..      B        0x74a ; CLK_WaitClockReady + 22
        0x0000073e:    460a        .F      MOV      r2,r1
        0x00000740:    1e49        I.      SUBS     r1,r1,#1
        0x00000742:    2a00        .*      CMP      r2,#0
        0x00000744:    dc01        ..      BGT      0x74a ; CLK_WaitClockReady + 22
        0x00000746:    2000        .       MOVS     r0,#0
        0x00000748:    bd10        ..      POP      {r4,pc}
        0x0000074a:    68da        .h      LDR      r2,[r3,#0xc]
        0x0000074c:    4620         F      MOV      r0,r4
        0x0000074e:    4390        .C      BICS     r0,r0,r2
        0x00000750:    d1f5        ..      BNE      0x73e ; CLK_WaitClockReady + 10
        0x00000752:    2001        .       MOVS     r0,#1
        0x00000754:    bd10        ..      POP      {r4,pc}
    $d
        0x00000756:    0000        ..      DCW    0
        0x00000758:    00124f80    .O..    DCD    1200000
        0x0000075c:    50000200    ...P    DCD    1342177792
    $t
    i.GPIO_Init
    GPIO_Init
        0x00000760:    b510        ..      PUSH     {r4,lr}
        0x00000762:    2201        ."      MOVS     r2,#1
        0x00000764:    2110        .!      MOVS     r1,#0x10
        0x00000766:    4802        .H      LDR      r0,[pc,#8] ; [0x770] = 0x50004040
        0x00000768:    f000f804    ....    BL       GPIO_SetMode ; 0x774
        0x0000076c:    bd10        ..      POP      {r4,pc}
    $d
        0x0000076e:    0000        ..      DCW    0
        0x00000770:    50004040    @@.P    DCD    1342193728
    $t
    i.GPIO_SetMode
    GPIO_SetMode
        0x00000774:    b5f0        ..      PUSH     {r4-r7,lr}
        0x00000776:    2300        .#      MOVS     r3,#0
        0x00000778:    2701        .'      MOVS     r7,#1
        0x0000077a:    463c        <F      MOV      r4,r7
        0x0000077c:    409c        .@      LSLS     r4,r4,r3
        0x0000077e:    420c        .B      TST      r4,r1
        0x00000780:    d008        ..      BEQ      0x794 ; GPIO_SetMode + 32
        0x00000782:    6805        .h      LDR      r5,[r0,#0]
        0x00000784:    005c        \.      LSLS     r4,r3,#1
        0x00000786:    2603        .&      MOVS     r6,#3
        0x00000788:    40a6        .@      LSLS     r6,r6,r4
        0x0000078a:    43b5        .C      BICS     r5,r5,r6
        0x0000078c:    4616        .F      MOV      r6,r2
        0x0000078e:    40a6        .@      LSLS     r6,r6,r4
        0x00000790:    4335        5C      ORRS     r5,r5,r6
        0x00000792:    6005        .`      STR      r5,[r0,#0]
        0x00000794:    1c5b        [.      ADDS     r3,r3,#1
        0x00000796:    2b10        .+      CMP      r3,#0x10
        0x00000798:    d3ef        ..      BCC      0x77a ; GPIO_SetMode + 6
        0x0000079a:    bdf0        ..      POP      {r4-r7,pc}
    i.Hard_Fault_Handler
    Hard_Fault_Handler
    __tagsym$$used
        0x0000079c:    4604        .F      MOV      r4,r0
        0x0000079e:    a003        ..      ADR      r0,{pc}+0xe ; 0x7ac
        0x000007a0:    f000fc4a    ..J.    BL       __0printf$8 ; 0x1038
        0x000007a4:    4620         F      MOV      r0,r4
        0x000007a6:    f001fae7    ....    BL       stackDump ; 0x1d78
        0x000007aa:    e7fe        ..      B        0x7aa ; Hard_Fault_Handler + 14
    $d
        0x000007ac:    48206e49    In H    DCD    1210084937
        0x000007b0:    20647261    ard     DCD    543453793
        0x000007b4:    6c756146    Faul    DCD    1819631942
        0x000007b8:    61482074    t Ha    DCD    1632116852
        0x000007bc:    656c646e    ndle    DCD    1701602414
        0x000007c0:    00000a72    r...    DCD    2674
    $t
    i.SPI_EnableAutoSS
    SPI_EnableAutoSS
        0x000007c4:    b510        ..      PUSH     {r4,lr}
        0x000007c6:    6883        .h      LDR      r3,[r0,#8]
        0x000007c8:    240d        .$      MOVS     r4,#0xd
        0x000007ca:    43a3        .C      BICS     r3,r3,r4
        0x000007cc:    4311        .C      ORRS     r1,r1,r2
        0x000007ce:    430b        .C      ORRS     r3,r3,r1
        0x000007d0:    2108        .!      MOVS     r1,#8
        0x000007d2:    430b        .C      ORRS     r3,r3,r1
        0x000007d4:    6083        .`      STR      r3,[r0,#8]
        0x000007d6:    bd10        ..      POP      {r4,pc}
    i.SPI_Open
    SPI_Open
        0x000007d8:    b5f8        ..      PUSH     {r3-r7,lr}
        0x000007da:    9e06        ..      LDR      r6,[sp,#0x18]
        0x000007dc:    460d        .F      MOV      r5,r1
        0x000007de:    4604        .F      MOV      r4,r0
        0x000007e0:    2b20         +      CMP      r3,#0x20
        0x000007e2:    d100        ..      BNE      0x7e6 ; SPI_Open + 14
        0x000007e4:    2300        .#      MOVS     r3,#0
        0x000007e6:    00d8        ..      LSLS     r0,r3,#3
        0x000007e8:    4328        (C      ORRS     r0,r0,r5
        0x000007ea:    4310        .C      ORRS     r0,r0,r2
        0x000007ec:    6020         `      STR      r0,[r4,#0]
        0x000007ee:    6be0        .k      LDR      r0,[r4,#0x3c]
        0x000007f0:    2101        .!      MOVS     r1,#1
        0x000007f2:    07c9        ..      LSLS     r1,r1,#31
        0x000007f4:    4308        .C      ORRS     r0,r0,r1
        0x000007f6:    63e0        .c      STR      r0,[r4,#0x3c]
        0x000007f8:    f7fffe34    ..4.    BL       CLK_GetHCLKFreq ; 0x464
        0x000007fc:    2200        ."      MOVS     r2,#0
        0x000007fe:    493d        =I      LDR      r1,[pc,#244] ; [0x8f4] = 0x40030000
        0x00000800:    4607        .F      MOV      r7,r0
        0x00000802:    2d00        .-      CMP      r5,#0
        0x00000804:    d008        ..      BEQ      0x818 ; SPI_Open + 64
        0x00000806:    2010        .       MOVS     r0,#0x10
        0x00000808:    60a0        .`      STR      r0,[r4,#8]
        0x0000080a:    428c        .B      CMP      r4,r1
        0x0000080c:    d16a        j.      BNE      0x8e4 ; SPI_Open + 268
        0x0000080e:    493a        :I      LDR      r1,[pc,#232] ; [0x8f8] = 0x50000200
        0x00000810:    694b        Ki      LDR      r3,[r1,#0x14]
        0x00000812:    4303        .C      ORRS     r3,r3,r0
        0x00000814:    614b        Ka      STR      r3,[r1,#0x14]
        0x00000816:    e06a        j.      B        0x8ee ; SPI_Open + 278
        0x00000818:    2000        .       MOVS     r0,#0
        0x0000081a:    60a0        .`      STR      r0,[r4,#8]
        0x0000081c:    4835        5H      LDR      r0,[pc,#212] ; [0x8f4] = 0x40030000
        0x0000081e:    4284        .B      CMP      r4,r0
        0x00000820:    4835        5H      LDR      r0,[pc,#212] ; [0x8f8] = 0x50000200
        0x00000822:    6940        @i      LDR      r0,[r0,#0x14]
        0x00000824:    d101        ..      BNE      0x82a ; SPI_Open + 82
        0x00000826:    06c0        ..      LSLS     r0,r0,#27
        0x00000828:    e000        ..      B        0x82c ; SPI_Open + 84
        0x0000082a:    0680        ..      LSLS     r0,r0,#26
        0x0000082c:    2800        .(      CMP      r0,#0
        0x0000082e:    da01        ..      BGE      0x834 ; SPI_Open + 92
        0x00000830:    463d        =F      MOV      r5,r7
        0x00000832:    e002        ..      B        0x83a ; SPI_Open + 98
        0x00000834:    f7fffe68    ..h.    BL       CLK_GetPLLClockFreq ; 0x508
        0x00000838:    4605        .F      MOV      r5,r0
        0x0000083a:    42be        .B      CMP      r6,r7
        0x0000083c:    d30f        ..      BCC      0x85e ; SPI_Open + 134
        0x0000083e:    482d        -H      LDR      r0,[pc,#180] ; [0x8f4] = 0x40030000
        0x00000840:    4284        .B      CMP      r4,r0
        0x00000842:    482d        -H      LDR      r0,[pc,#180] ; [0x8f8] = 0x50000200
        0x00000844:    d104        ..      BNE      0x850 ; SPI_Open + 120
        0x00000846:    6942        Bi      LDR      r2,[r0,#0x14]
        0x00000848:    2110        .!      MOVS     r1,#0x10
        0x0000084a:    430a        .C      ORRS     r2,r2,r1
        0x0000084c:    6142        Ba      STR      r2,[r0,#0x14]
        0x0000084e:    e003        ..      B        0x858 ; SPI_Open + 128
        0x00000850:    6941        Ai      LDR      r1,[r0,#0x14]
        0x00000852:    2220         "      MOVS     r2,#0x20
        0x00000854:    4311        .C      ORRS     r1,r1,r2
        0x00000856:    6141        Aa      STR      r1,[r0,#0x14]
        0x00000858:    2000        .       MOVS     r0,#0
        0x0000085a:    6060        ``      STR      r0,[r4,#4]
        0x0000085c:    e048        H.      B        0x8f0 ; SPI_Open + 280
        0x0000085e:    42ae        .B      CMP      r6,r5
        0x00000860:    d303        ..      BCC      0x86a ; SPI_Open + 146
        0x00000862:    2000        .       MOVS     r0,#0
        0x00000864:    6060        ``      STR      r0,[r4,#4]
        0x00000866:    4628        (F      MOV      r0,r5
        0x00000868:    bdf8        ..      POP      {r3-r7,pc}
        0x0000086a:    2e00        ..      CMP      r6,#0
        0x0000086c:    d028        (.      BEQ      0x8c0 ; SPI_Open + 232
        0x0000086e:    200a        .       MOVS     r0,#0xa
        0x00000870:    462f        /F      MOV      r7,r5
        0x00000872:    4347        GC      MULS     r7,r0,r7
        0x00000874:    4631        1F      MOV      r1,r6
        0x00000876:    4638        8F      MOV      r0,r7
        0x00000878:    f7fffc60    ..`.    BL       __aeabi_uidiv ; 0x13c
        0x0000087c:    210a        .!      MOVS     r1,#0xa
        0x0000087e:    1d40        @.      ADDS     r0,r0,#5
        0x00000880:    f7fffc5c    ..\.    BL       __aeabi_uidiv ; 0x13c
        0x00000884:    1e40        @.      SUBS     r0,r0,#1
        0x00000886:    28ff        .(      CMP      r0,#0xff
        0x00000888:    d924        $.      BLS      0x8d4 ; SPI_Open + 252
        0x0000088a:    6be0        .k      LDR      r0,[r4,#0x3c]
        0x0000088c:    0040        @.      LSLS     r0,r0,#1
        0x0000088e:    0840        @.      LSRS     r0,r0,#1
        0x00000890:    63e0        .c      STR      r0,[r4,#0x3c]
        0x00000892:    0071        q.      LSLS     r1,r6,#1
        0x00000894:    4638        8F      MOV      r0,r7
        0x00000896:    f7fffc51    ..Q.    BL       __aeabi_uidiv ; 0x13c
        0x0000089a:    210a        .!      MOVS     r1,#0xa
        0x0000089c:    1d40        @.      ADDS     r0,r0,#5
        0x0000089e:    f7fffc4d    ..M.    BL       __aeabi_uidiv ; 0x13c
        0x000008a2:    1e40        @.      SUBS     r0,r0,#1
        0x000008a4:    28ff        .(      CMP      r0,#0xff
        0x000008a6:    d900        ..      BLS      0x8aa ; SPI_Open + 210
        0x000008a8:    20ff        .       MOVS     r0,#0xff
        0x000008aa:    6861        ah      LDR      r1,[r4,#4]
        0x000008ac:    0a09        ..      LSRS     r1,r1,#8
        0x000008ae:    0209        ..      LSLS     r1,r1,#8
        0x000008b0:    4301        .C      ORRS     r1,r1,r0
        0x000008b2:    6061        a`      STR      r1,[r4,#4]
        0x000008b4:    0041        A.      LSLS     r1,r0,#1
        0x000008b6:    4628        (F      MOV      r0,r5
        0x000008b8:    1c89        ..      ADDS     r1,r1,#2
        0x000008ba:    f7fffc3f    ..?.    BL       __aeabi_uidiv ; 0x13c
        0x000008be:    bdf8        ..      POP      {r3-r7,pc}
        0x000008c0:    6be0        .k      LDR      r0,[r4,#0x3c]
        0x000008c2:    0040        @.      LSLS     r0,r0,#1
        0x000008c4:    0840        @.      LSRS     r0,r0,#1
        0x000008c6:    63e0        .c      STR      r0,[r4,#0x3c]
        0x000008c8:    6860        `h      LDR      r0,[r4,#4]
        0x000008ca:    21ff        .!      MOVS     r1,#0xff
        0x000008cc:    4308        .C      ORRS     r0,r0,r1
        0x000008ce:    6060        ``      STR      r0,[r4,#4]
        0x000008d0:    0a68        h.      LSRS     r0,r5,#9
        0x000008d2:    bdf8        ..      POP      {r3-r7,pc}
        0x000008d4:    6861        ah      LDR      r1,[r4,#4]
        0x000008d6:    0a09        ..      LSRS     r1,r1,#8
        0x000008d8:    0209        ..      LSLS     r1,r1,#8
        0x000008da:    4301        .C      ORRS     r1,r1,r0
        0x000008dc:    6061        a`      STR      r1,[r4,#4]
        0x000008de:    1c41        A.      ADDS     r1,r0,#1
        0x000008e0:    4628        (F      MOV      r0,r5
        0x000008e2:    e7ea        ..      B        0x8ba ; SPI_Open + 226
        0x000008e4:    4804        .H      LDR      r0,[pc,#16] ; [0x8f8] = 0x50000200
        0x000008e6:    6941        Ai      LDR      r1,[r0,#0x14]
        0x000008e8:    2320         #      MOVS     r3,#0x20
        0x000008ea:    4319        .C      ORRS     r1,r1,r3
        0x000008ec:    6141        Aa      STR      r1,[r0,#0x14]
        0x000008ee:    6062        b`      STR      r2,[r4,#4]
        0x000008f0:    4638        8F      MOV      r0,r7
        0x000008f2:    bdf8        ..      POP      {r3-r7,pc}
    $d
        0x000008f4:    40030000    ...@    DCD    1073938432
        0x000008f8:    50000200    ...P    DCD    1342177792
    $t
    i.SYS_Init
    SYS_Init
        0x000008fc:    b570        p.      PUSH     {r4-r6,lr}
        0x000008fe:    2059        Y       MOVS     r0,#0x59
        0x00000900:    2116        .!      MOVS     r1,#0x16
        0x00000902:    4c30        0L      LDR      r4,[pc,#192] ; [0x9c4] = 0x50000100
        0x00000904:    2288        ."      MOVS     r2,#0x88
        0x00000906:    e002        ..      B        0x90e ; SYS_Init + 18
        0x00000908:    6020         `      STR      r0,[r4,#0]
        0x0000090a:    6021        !`      STR      r1,[r4,#0]
        0x0000090c:    6022        "`      STR      r2,[r4,#0]
        0x0000090e:    6823        #h      LDR      r3,[r4,#0]
        0x00000910:    2b01        .+      CMP      r3,#1
        0x00000912:    d1f9        ..      BNE      0x908 ; SYS_Init + 12
        0x00000914:    2004        .       MOVS     r0,#4
        0x00000916:    f7fffd95    ....    BL       CLK_EnableXtalRC ; 0x444
        0x0000091a:    2010        .       MOVS     r0,#0x10
        0x0000091c:    f7ffff0a    ....    BL       CLK_WaitClockReady ; 0x734
        0x00000920:    2001        .       MOVS     r0,#1
        0x00000922:    f7fffd8f    ....    BL       CLK_EnableXtalRC ; 0x444
        0x00000926:    2001        .       MOVS     r0,#1
        0x00000928:    f7ffff04    ....    BL       CLK_WaitClockReady ; 0x734
        0x0000092c:    4826        &H      LDR      r0,[pc,#152] ; [0x9c8] = 0x44aa200
        0x0000092e:    f7fffe17    ....    BL       CLK_SetCoreClock ; 0x560
        0x00000932:    2100        .!      MOVS     r1,#0
        0x00000934:    2007        .       MOVS     r0,#7
        0x00000936:    f7fffe7b    ..{.    BL       CLK_SetHCLK ; 0x630
        0x0000093a:    4d24        $M      LDR      r5,[pc,#144] ; [0x9cc] = 0x57803d10
        0x0000093c:    4628        (F      MOV      r0,r5
        0x0000093e:    f7fffc9d    ....    BL       CLK_EnableModuleClock ; 0x27c
        0x00000942:    2103        .!      MOVS     r1,#3
        0x00000944:    2200        ."      MOVS     r2,#0
        0x00000946:    0609        ..      LSLS     r1,r1,#24
        0x00000948:    4628        (F      MOV      r0,r5
        0x0000094a:    f7fffe95    ....    BL       CLK_SetModuleClock ; 0x678
        0x0000094e:    4d20         M      LDR      r5,[pc,#128] ; [0x9d0] = 0x5e800002
        0x00000950:    4628        (F      MOV      r0,r5
        0x00000952:    f7fffc93    ....    BL       CLK_EnableModuleClock ; 0x27c
        0x00000956:    2101        .!      MOVS     r1,#1
        0x00000958:    2200        ."      MOVS     r2,#0
        0x0000095a:    0249        I.      LSLS     r1,r1,#9
        0x0000095c:    4628        (F      MOV      r0,r5
        0x0000095e:    f7fffe8b    ....    BL       CLK_SetModuleClock ; 0x678
        0x00000962:    4d1c        .M      LDR      r5,[pc,#112] ; [0x9d4] = 0x5ec00003
        0x00000964:    4628        (F      MOV      r0,r5
        0x00000966:    f7fffc89    ....    BL       CLK_EnableModuleClock ; 0x27c
        0x0000096a:    2101        .!      MOVS     r1,#1
        0x0000096c:    2200        ."      MOVS     r2,#0
        0x0000096e:    0349        I.      LSLS     r1,r1,#13
        0x00000970:    4628        (F      MOV      r0,r5
        0x00000972:    f7fffe81    ....    BL       CLK_SetModuleClock ; 0x678
        0x00000976:    4d18        .M      LDR      r5,[pc,#96] ; [0x9d8] = 0x5240000c
        0x00000978:    2200        ."      MOVS     r2,#0
        0x0000097a:    2110        .!      MOVS     r1,#0x10
        0x0000097c:    4628        (F      MOV      r0,r5
        0x0000097e:    f7fffe7b    ..{.    BL       CLK_SetModuleClock ; 0x678
        0x00000982:    4628        (F      MOV      r0,r5
        0x00000984:    f7fffc7a    ..z.    BL       CLK_EnableModuleClock ; 0x27c
        0x00000988:    2005        .       MOVS     r0,#5
        0x0000098a:    0700        ..      LSLS     r0,r0,#28
        0x0000098c:    6b41        Ak      LDR      r1,[r0,#0x34]
        0x0000098e:    0889        ..      LSRS     r1,r1,#2
        0x00000990:    0089        ..      LSLS     r1,r1,#2
        0x00000992:    6341        Ac      STR      r1,[r0,#0x34]
        0x00000994:    6b41        Ak      LDR      r1,[r0,#0x34]
        0x00000996:    2203        ."      MOVS     r2,#3
        0x00000998:    4311        .C      ORRS     r1,r1,r2
        0x0000099a:    6341        Ac      STR      r1,[r0,#0x34]
        0x0000099c:    6b81        .k      LDR      r1,[r0,#0x38]
        0x0000099e:    0909        ..      LSRS     r1,r1,#4
        0x000009a0:    0109        ..      LSLS     r1,r1,#4
        0x000009a2:    6381        .c      STR      r1,[r0,#0x38]
        0x000009a4:    6b81        .k      LDR      r1,[r0,#0x38]
        0x000009a6:    220f        ."      MOVS     r2,#0xf
        0x000009a8:    4311        .C      ORRS     r1,r1,r2
        0x000009aa:    6381        .c      STR      r1,[r0,#0x38]
        0x000009ac:    4805        .H      LDR      r0,[pc,#20] ; [0x9c4] = 0x50000100
        0x000009ae:    38c0        .8      SUBS     r0,r0,#0xc0
        0x000009b0:    6901        .i      LDR      r1,[r0,#0x10]
        0x000009b2:    6101        .a      STR      r1,[r0,#0x10]
        0x000009b4:    6901        .i      LDR      r1,[r0,#0x10]
        0x000009b6:    6101        .a      STR      r1,[r0,#0x10]
        0x000009b8:    f000f904    ....    BL       SystemCoreClockUpdate ; 0xbc4
        0x000009bc:    2000        .       MOVS     r0,#0
        0x000009be:    6020         `      STR      r0,[r4,#0]
        0x000009c0:    bd70        p.      POP      {r4-r6,pc}
    $d
        0x000009c2:    0000        ..      DCW    0
        0x000009c4:    50000100    ...P    DCD    1342177536
        0x000009c8:    044aa200    ..J.    DCD    72000000
        0x000009cc:    57803d10    .=.W    DCD    1468022032
        0x000009d0:    5e800002    ...^    DCD    1585446914
        0x000009d4:    5ec00003    ...^    DCD    1589641219
        0x000009d8:    5240000c    ..@R    DCD    1379926028
    $t
    i.SYS_ResetModule
    SYS_ResetModule
        0x000009dc:    2105        .!      MOVS     r1,#5
        0x000009de:    0e02        ..      LSRS     r2,r0,#24
        0x000009e0:    0709        ..      LSLS     r1,r1,#28
        0x000009e2:    1851        Q.      ADDS     r1,r2,r1
        0x000009e4:    688b        .h      LDR      r3,[r1,#8]
        0x000009e6:    2201        ."      MOVS     r2,#1
        0x000009e8:    4082        .@      LSLS     r2,r2,r0
        0x000009ea:    4313        .C      ORRS     r3,r3,r2
        0x000009ec:    608b        .`      STR      r3,[r1,#8]
        0x000009ee:    6888        .h      LDR      r0,[r1,#8]
        0x000009f0:    4390        .C      BICS     r0,r0,r2
        0x000009f2:    6088        .`      STR      r0,[r1,#8]
        0x000009f4:    4770        pG      BX       lr
        0x000009f6:    0000        ..      MOVS     r0,r0
    i.SendChar_ToUART
    SendChar_ToUART
        0x000009f8:    4906        .I      LDR      r1,[pc,#24] ; [0xa14] = 0x40050000
        0x000009fa:    698a        .i      LDR      r2,[r1,#0x18]
        0x000009fc:    0212        ..      LSLS     r2,r2,#8
        0x000009fe:    d4fc        ..      BMI      0x9fa ; SendChar_ToUART + 2
        0x00000a00:    6008        .`      STR      r0,[r1,#0]
        0x00000a02:    280a        .(      CMP      r0,#0xa
        0x00000a04:    d104        ..      BNE      0xa10 ; SendChar_ToUART + 24
        0x00000a06:    6988        .i      LDR      r0,[r1,#0x18]
        0x00000a08:    0200        ..      LSLS     r0,r0,#8
        0x00000a0a:    d4fc        ..      BMI      0xa06 ; SendChar_ToUART + 14
        0x00000a0c:    200d        .       MOVS     r0,#0xd
        0x00000a0e:    6008        .`      STR      r0,[r1,#0]
        0x00000a10:    4770        pG      BX       lr
    $d
        0x00000a12:    0000        ..      DCW    0
        0x00000a14:    40050000    ...@    DCD    1074069504
    $t
    i.StateMachine
    StateMachine
        0x00000a18:    b5f0        ..      PUSH     {r4-r7,lr}
        0x00000a1a:    4e63        cN      LDR      r6,[pc,#396] ; [0xba8] = 0x2000002c
        0x00000a1c:    b085        ..      SUB      sp,sp,#0x14
        0x00000a1e:    7830        0x      LDRB     r0,[r6,#0]
        0x00000a20:    2400        .$      MOVS     r4,#0
        0x00000a22:    1c41        A.      ADDS     r1,r0,#1
        0x00000a24:    7031        1p      STRB     r1,[r6,#0]
        0x00000a26:    280e        .(      CMP      r0,#0xe
        0x00000a28:    d301        ..      BCC      0xa2e ; StateMachine + 22
        0x00000a2a:    2001        .       MOVS     r0,#1
        0x00000a2c:    7030        0p      STRB     r0,[r6,#0]
        0x00000a2e:    7831        1x      LDRB     r1,[r6,#0]
        0x00000a30:    a05e        ^.      ADR      r0,{pc}+0x17c ; 0xbac
        0x00000a32:    f000fb01    ....    BL       __0printf$8 ; 0x1038
        0x00000a36:    7830        0x      LDRB     r0,[r6,#0]
        0x00000a38:    4d61        aM      LDR      r5,[pc,#388] ; [0xbc0] = 0x1e20
        0x00000a3a:    0003        ..      MOVS     r3,r0
        0x00000a3c:    f000fb0c    ....    BL       __ARM_common_switch8 ; 0x1058
    $d
        0x00000a40:    0d08110e    ....    DCD    218632462
        0x00000a44:    2d292413    .$)-    DCD    757670931
        0x00000a48:    74685544    DUht    DCD    1952994628
        0x00000a4c:    119c8b78    x...    DCD    295471992
    $t
        0x00000a50:    2032        2       MOVS     r0,#0x32
        0x00000a52:    f000fffb    ....    BL       getRainbow ; 0x1a4c
        0x00000a56:    2030        0       MOVS     r0,#0x30
        0x00000a58:    e063        c.      B        0xb22 ; StateMachine + 266
        0x00000a5a:    210a        .!      MOVS     r1,#0xa
        0x00000a5c:    2002        .       MOVS     r0,#2
        0x00000a5e:    f001f811    ....    BL       getRainbowCycle ; 0x1a84
        0x00000a62:    b005        ..      ADD      sp,sp,#0x14
        0x00000a64:    bdf0        ..      POP      {r4-r7,pc}
        0x00000a66:    8970        p.      LDRH     r0,[r6,#0xa]
        0x00000a68:    0041        A.      LSLS     r1,r0,#1
        0x00000a6a:    1840        @.      ADDS     r0,r0,r1
        0x00000a6c:    1941        A.      ADDS     r1,r0,r5
        0x00000a6e:    788b        .x      LDRB     r3,[r1,#2]
        0x00000a70:    784a        Jx      LDRB     r2,[r1,#1]
        0x00000a72:    5c29        )\      LDRB     r1,[r5,r0]
        0x00000a74:    201e        .       MOVS     r0,#0x1e
        0x00000a76:    f001f82e    ....    BL       getTheaterChase ; 0x1ad6
        0x00000a7a:    f001f91f    ....    BL       setLED_ColorIdxChange ; 0x1cbc
        0x00000a7e:    1c64        d.      ADDS     r4,r4,#1
        0x00000a80:    b2a4        ..      UXTH     r4,r4
        0x00000a82:    2c05        .,      CMP      r4,#5
        0x00000a84:    d3ef        ..      BCC      0xa66 ; StateMachine + 78
        0x00000a86:    e7ec        ..      B        0xa62 ; StateMachine + 74
        0x00000a88:    2001        .       MOVS     r0,#1
        0x00000a8a:    f001f851    ..Q.    BL       getTheaterChaseRainbow ; 0x1b30
        0x00000a8e:    20f0        .       MOVS     r0,#0xf0
        0x00000a90:    e047        G.      B        0xb22 ; StateMachine + 266
        0x00000a92:    203c        <       MOVS     r0,#0x3c
        0x00000a94:    f000ff94    ....    BL       getRGBSequence ; 0x19c0
        0x00000a98:    e7e3        ..      B        0xa62 ; StateMachine + 74
        0x00000a9a:    277d        }'      MOVS     r7,#0x7d
        0x00000a9c:    027f        ..      LSLS     r7,r7,#9
        0x00000a9e:    8970        p.      LDRH     r0,[r6,#0xa]
        0x00000aa0:    0041        A.      LSLS     r1,r0,#1
        0x00000aa2:    1842        B.      ADDS     r2,r0,r1
        0x00000aa4:    1953        S.      ADDS     r3,r2,r5
        0x00000aa6:    7899        .x      LDRB     r1,[r3,#2]
        0x00000aa8:    785b        [x      LDRB     r3,[r3,#1]
        0x00000aaa:    5caa        .\      LDRB     r2,[r5,r2]
        0x00000aac:    4668        hF      MOV      r0,sp
        0x00000aae:    c00e        ..      STM      r0!,{r1-r3}
        0x00000ab0:    9103        ..      STR      r1,[sp,#0xc]
        0x00000ab2:    2180        .!      MOVS     r1,#0x80
        0x00000ab4:    4638        8F      MOV      r0,r7
        0x00000ab6:    f000fdb9    ....    BL       getAlternateColors ; 0x162c
        0x00000aba:    f001f8ff    ....    BL       setLED_ColorIdxChange ; 0x1cbc
        0x00000abe:    1c64        d.      ADDS     r4,r4,#1
        0x00000ac0:    b2a4        ..      UXTH     r4,r4
        0x00000ac2:    2c05        .,      CMP      r4,#5
        0x00000ac4:    d3eb        ..      BCC      0xa9e ; StateMachine + 134
        0x00000ac6:    e7cc        ..      B        0xa62 ; StateMachine + 74
        0x00000ac8:    8970        p.      LDRH     r0,[r6,#0xa]
        0x00000aca:    0041        A.      LSLS     r1,r0,#1
        0x00000acc:    1840        @.      ADDS     r0,r0,r1
        0x00000ace:    1941        A.      ADDS     r1,r0,r5
        0x00000ad0:    788b        .x      LDRB     r3,[r1,#2]
        0x00000ad2:    784a        Jx      LDRB     r2,[r1,#1]
        0x00000ad4:    5c29        )\      LDRB     r1,[r5,r0]
        0x00000ad6:    201e        .       MOVS     r0,#0x1e
        0x00000ad8:    f000fe7e    ..~.    BL       getFullEmpty ; 0x17d8
        0x00000adc:    f001f8ee    ....    BL       setLED_ColorIdxChange ; 0x1cbc
        0x00000ae0:    1c64        d.      ADDS     r4,r4,#1
        0x00000ae2:    b2a4        ..      UXTH     r4,r4
        0x00000ae4:    2c05        .,      CMP      r4,#5
        0x00000ae6:    d3ef        ..      BCC      0xac8 ; StateMachine + 176
        0x00000ae8:    e7bb        ..      B        0xa62 ; StateMachine + 74
        0x00000aea:    8970        p.      LDRH     r0,[r6,#0xa]
        0x00000aec:    0041        A.      LSLS     r1,r0,#1
        0x00000aee:    1840        @.      ADDS     r0,r0,r1
        0x00000af0:    1941        A.      ADDS     r1,r0,r5
        0x00000af2:    788a        .x      LDRB     r2,[r1,#2]
        0x00000af4:    9200        ..      STR      r2,[sp,#0]
        0x00000af6:    784b        Kx      LDRB     r3,[r1,#1]
        0x00000af8:    5c2a        *\      LDRB     r2,[r5,r0]
        0x00000afa:    210a        .!      MOVS     r1,#0xa
        0x00000afc:    2032        2       MOVS     r0,#0x32
        0x00000afe:    f000ff32    ..2.    BL       getPatternMove ; 0x1966
        0x00000b02:    f001f8db    ....    BL       setLED_ColorIdxChange ; 0x1cbc
        0x00000b06:    1c64        d.      ADDS     r4,r4,#1
        0x00000b08:    b2a4        ..      UXTH     r4,r4
        0x00000b0a:    2c05        .,      CMP      r4,#5
        0x00000b0c:    d3ed        ..      BCC      0xaea ; StateMachine + 210
        0x00000b0e:    e7a8        ..      B        0xa62 ; StateMachine + 74
        0x00000b10:    203c        <       MOVS     r0,#0x3c
        0x00000b12:    f000fdff    ....    BL       getColorWheel ; 0x1714
        0x00000b16:    2200        ."      MOVS     r2,#0
        0x00000b18:    4611        .F      MOV      r1,r2
        0x00000b1a:    4610        .F      MOV      r0,r2
        0x00000b1c:    f001f8ea    ....    BL       setLED_ColorWipe ; 0x1cf4
        0x00000b20:    2078        x       MOVS     r0,#0x78
        0x00000b22:    f000fd51    ..Q.    BL       delay_ms ; 0x15c8
        0x00000b26:    e79c        ..      B        0xa62 ; StateMachine + 74
        0x00000b28:    200a        .       MOVS     r0,#0xa
        0x00000b2a:    f000fd5d    ..].    BL       getAllColors ; 0x15e8
        0x00000b2e:    e798        ..      B        0xa62 ; StateMachine + 74
        0x00000b30:    27e1        .'      MOVS     r7,#0xe1
        0x00000b32:    00bf        ..      LSLS     r7,r7,#2
        0x00000b34:    8970        p.      LDRH     r0,[r6,#0xa]
        0x00000b36:    0041        A.      LSLS     r1,r0,#1
        0x00000b38:    1841        A.      ADDS     r1,r0,r1
        0x00000b3a:    1948        H.      ADDS     r0,r1,r5
        0x00000b3c:    7883        .x      LDRB     r3,[r0,#2]
        0x00000b3e:    7842        Bx      LDRB     r2,[r0,#1]
        0x00000b40:    5c69        i\      LDRB     r1,[r5,r1]
        0x00000b42:    4638        8F      MOV      r0,r7
        0x00000b44:    f000fe76    ..v.    BL       getHeartBeat ; 0x1834
        0x00000b48:    f001f8b8    ....    BL       setLED_ColorIdxChange ; 0x1cbc
        0x00000b4c:    1c64        d.      ADDS     r4,r4,#1
        0x00000b4e:    b2a4        ..      UXTH     r4,r4
        0x00000b50:    2c05        .,      CMP      r4,#5
        0x00000b52:    d3ef        ..      BCC      0xb34 ; StateMachine + 284
        0x00000b54:    e785        ..      B        0xa62 ; StateMachine + 74
        0x00000b56:    8970        p.      LDRH     r0,[r6,#0xa]
        0x00000b58:    0041        A.      LSLS     r1,r0,#1
        0x00000b5a:    1840        @.      ADDS     r0,r0,r1
        0x00000b5c:    1941        A.      ADDS     r1,r0,r5
        0x00000b5e:    788b        .x      LDRB     r3,[r1,#2]
        0x00000b60:    784a        Jx      LDRB     r2,[r1,#1]
        0x00000b62:    5c29        )\      LDRB     r1,[r5,r0]
        0x00000b64:    201e        .       MOVS     r0,#0x1e
        0x00000b66:    f000fdb8    ....    BL       getCircularRing ; 0x16da
        0x00000b6a:    f001f8a7    ....    BL       setLED_ColorIdxChange ; 0x1cbc
        0x00000b6e:    1c64        d.      ADDS     r4,r4,#1
        0x00000b70:    b2a4        ..      UXTH     r4,r4
        0x00000b72:    2c10        .,      CMP      r4,#0x10
        0x00000b74:    d3ef        ..      BCC      0xb56 ; StateMachine + 318
        0x00000b76:    e774        t.      B        0xa62 ; StateMachine + 74
        0x00000b78:    2701        .'      MOVS     r7,#1
        0x00000b7a:    027f        ..      LSLS     r7,r7,#9
        0x00000b7c:    8970        p.      LDRH     r0,[r6,#0xa]
        0x00000b7e:    0041        A.      LSLS     r1,r0,#1
        0x00000b80:    1842        B.      ADDS     r2,r0,r1
        0x00000b82:    1953        S.      ADDS     r3,r2,r5
        0x00000b84:    7899        .x      LDRB     r1,[r3,#2]
        0x00000b86:    785b        [x      LDRB     r3,[r3,#1]
        0x00000b88:    5caa        .\      LDRB     r2,[r5,r2]
        0x00000b8a:    4668        hF      MOV      r0,sp
        0x00000b8c:    c00e        ..      STM      r0!,{r1-r3}
        0x00000b8e:    9103        ..      STR      r1,[sp,#0xc]
        0x00000b90:    2110        .!      MOVS     r1,#0x10
        0x00000b92:    4638        8F      MOV      r0,r7
        0x00000b94:    f000fde8    ....    BL       getFromAToB ; 0x1768
        0x00000b98:    f001f890    ....    BL       setLED_ColorIdxChange ; 0x1cbc
        0x00000b9c:    1c64        d.      ADDS     r4,r4,#1
        0x00000b9e:    b2a4        ..      UXTH     r4,r4
        0x00000ba0:    2cff        .,      CMP      r4,#0xff
        0x00000ba2:    d9eb        ..      BLS      0xb7c ; StateMachine + 356
        0x00000ba4:    e75d        ].      B        0xa62 ; StateMachine + 74
    $d
        0x00000ba6:    0000        ..      DCW    0
        0x00000ba8:    2000002c    ,..     DCD    536870956
        0x00000bac:    6f6d6544    Demo    DCD    1869440324
        0x00000bb0:    74617453    Stat    DCD    1952543827
        0x00000bb4:    203a2065    e :     DCD    540680293
        0x00000bb8:    0d643225    %2d.    DCD    224670245
        0x00000bbc:    0000000a    ....    DCD    10
        0x00000bc0:    00001e20     ...    DCD    7712
    $t
    i.SystemCoreClockUpdate
    SystemCoreClockUpdate
        0x00000bc4:    b538        8.      PUSH     {r3-r5,lr}
        0x00000bc6:    a01d        ..      ADR      r0,{pc}+0x76 ; 0xc3c
        0x00000bc8:    6800        .h      LDR      r0,[r0,#0]
        0x00000bca:    4c1d        .L      LDR      r4,[pc,#116] ; [0xc40] = 0x50000200
        0x00000bcc:    9000        ..      STR      r0,[sp,#0]
        0x00000bce:    6a21        !j      LDR      r1,[r4,#0x20]
        0x00000bd0:    1320         .      ASRS     r0,r4,#12
        0x00000bd2:    4201        .B      TST      r1,r0
        0x00000bd4:    d001        ..      BEQ      0xbda ; SystemCoreClockUpdate + 22
        0x00000bd6:    2000        .       MOVS     r0,#0
        0x00000bd8:    e016        ..      B        0xc08 ; SystemCoreClockUpdate + 68
        0x00000bda:    0308        ..      LSLS     r0,r1,#12
        0x00000bdc:    d501        ..      BPL      0xbe2 ; SystemCoreClockUpdate + 30
        0x00000bde:    4819        .H      LDR      r0,[pc,#100] ; [0xc44] = 0x1518000
        0x00000be0:    e000        ..      B        0xbe4 ; SystemCoreClockUpdate + 32
        0x00000be2:    4819        .H      LDR      r0,[pc,#100] ; [0xc48] = 0xb71b00
        0x00000be4:    038a        ..      LSLS     r2,r1,#14
        0x00000be6:    d40f        ..      BMI      0xc08 ; SystemCoreClockUpdate + 68
        0x00000be8:    040a        ..      LSLS     r2,r1,#16
        0x00000bea:    0f92        ..      LSRS     r2,r2,#30
        0x00000bec:    466b        kF      MOV      r3,sp
        0x00000bee:    5c9b        .\      LDRB     r3,[r3,r2]
        0x00000bf0:    05ca        ..      LSLS     r2,r1,#23
        0x00000bf2:    0489        ..      LSLS     r1,r1,#18
        0x00000bf4:    0dd2        ..      LSRS     r2,r2,#23
        0x00000bf6:    0ec9        ..      LSRS     r1,r1,#27
        0x00000bf8:    1c89        ..      ADDS     r1,r1,#2
        0x00000bfa:    0880        ..      LSRS     r0,r0,#2
        0x00000bfc:    1c92        ..      ADDS     r2,r2,#2
        0x00000bfe:    4359        YC      MULS     r1,r3,r1
        0x00000c00:    4350        PC      MULS     r0,r2,r0
        0x00000c02:    f7fffa9b    ....    BL       __aeabi_uidiv ; 0x13c
        0x00000c06:    0080        ..      LSLS     r0,r0,#2
        0x00000c08:    4d10        .M      LDR      r5,[pc,#64] ; [0xc4c] = 0x20000000
        0x00000c0a:    60a8        .`      STR      r0,[r5,#8]
        0x00000c0c:    6921        !i      LDR      r1,[r4,#0x10]
        0x00000c0e:    0749        I.      LSLS     r1,r1,#29
        0x00000c10:    0f49        I.      LSRS     r1,r1,#29
        0x00000c12:    2902        .)      CMP      r1,#2
        0x00000c14:    d003        ..      BEQ      0xc1e ; SystemCoreClockUpdate + 90
        0x00000c16:    0088        ..      LSLS     r0,r1,#2
        0x00000c18:    4629        )F      MOV      r1,r5
        0x00000c1a:    310c        .1      ADDS     r1,r1,#0xc
        0x00000c1c:    5808        .X      LDR      r0,[r1,r0]
        0x00000c1e:    69a1        .i      LDR      r1,[r4,#0x18]
        0x00000c20:    0709        ..      LSLS     r1,r1,#28
        0x00000c22:    0f09        ..      LSRS     r1,r1,#28
        0x00000c24:    1c49        I.      ADDS     r1,r1,#1
        0x00000c26:    f7fffa89    ....    BL       __aeabi_uidiv ; 0x13c
        0x00000c2a:    4909        .I      LDR      r1,[pc,#36] ; [0xc50] = 0xf4240
        0x00000c2c:    6028        (`      STR      r0,[r5,#0]
        0x00000c2e:    104a        J.      ASRS     r2,r1,#1
        0x00000c30:    1880        ..      ADDS     r0,r0,r2
        0x00000c32:    f7fffa83    ....    BL       __aeabi_uidiv ; 0x13c
        0x00000c36:    6068        h`      STR      r0,[r5,#4]
        0x00000c38:    bd38        8.      POP      {r3-r5,pc}
    $d
        0x00000c3a:    0000        ..      DCW    0
        0x00000c3c:    04020201    ....    DCD    67240449
        0x00000c40:    50000200    ...P    DCD    1342177792
        0x00000c44:    01518000    ..Q.    DCD    22118400
        0x00000c48:    00b71b00    ....    DCD    12000000
        0x00000c4c:    20000000    ...     DCD    536870912
        0x00000c50:    000f4240    @B..    DCD    1000000
    $t
    i.SystemInit
    SystemInit
        0x00000c54:    4770        pG      BX       lr
        0x00000c56:    0000        ..      MOVS     r0,r0
    i.TIMER1_Init
    TIMER1_Init
        0x00000c58:    b510        ..      PUSH     {r4,lr}
        0x00000c5a:    4c0a        .L      LDR      r4,[pc,#40] ; [0xc84] = 0x40010020
        0x00000c5c:    227d        }"      MOVS     r2,#0x7d
        0x00000c5e:    2101        .!      MOVS     r1,#1
        0x00000c60:    00d2        ..      LSLS     r2,r2,#3
        0x00000c62:    06c9        ..      LSLS     r1,r1,#27
        0x00000c64:    4620         F      MOV      r0,r4
        0x00000c66:    f000f88f    ....    BL       TIMER_Open ; 0xd88
        0x00000c6a:    6820         h      LDR      r0,[r4,#0]
        0x00000c6c:    0621        !.      LSLS     r1,r4,#24
        0x00000c6e:    4308        .C      ORRS     r0,r0,r1
        0x00000c70:    6020         `      STR      r0,[r4,#0]
        0x00000c72:    1508        ..      ASRS     r0,r1,#20
        0x00000c74:    4904        .I      LDR      r1,[pc,#16] ; [0xc88] = 0xe000e100
        0x00000c76:    6008        .`      STR      r0,[r1,#0]
        0x00000c78:    6820         h      LDR      r0,[r4,#0]
        0x00000c7a:    0589        ..      LSLS     r1,r1,#22
        0x00000c7c:    4308        .C      ORRS     r0,r0,r1
        0x00000c7e:    6020         `      STR      r0,[r4,#0]
        0x00000c80:    bd10        ..      POP      {r4,pc}
    $d
        0x00000c82:    0000        ..      DCW    0
        0x00000c84:    40010020     ..@    DCD    1073807392
        0x00000c88:    e000e100    ....    DCD    3758153984
    $t
    i.TIMER_Delay
    TIMER_Delay
        0x00000c8c:    b5f8        ..      PUSH     {r3-r7,lr}
        0x00000c8e:    460c        .F      MOV      r4,r1
        0x00000c90:    4606        .F      MOV      r6,r0
        0x00000c92:    f000f845    ..E.    BL       TIMER_GetModuleClock ; 0xd20
        0x00000c96:    4601        .F      MOV      r1,r0
        0x00000c98:    9000        ..      STR      r0,[sp,#0]
        0x00000c9a:    481e        .H      LDR      r0,[pc,#120] ; [0xd14] = 0x20000000
        0x00000c9c:    2700        .'      MOVS     r7,#0
        0x00000c9e:    6800        .h      LDR      r0,[r0,#0]
        0x00000ca0:    f7fffa4c    ..L.    BL       __aeabi_uidiv ; 0x13c
        0x00000ca4:    1c45        E.      ADDS     r5,r0,#1
        0x00000ca6:    2000        .       MOVS     r0,#0
        0x00000ca8:    6030        0`      STR      r0,[r6,#0]
        0x00000caa:    6170        pa      STR      r0,[r6,#0x14]
        0x00000cac:    491a        .I      LDR      r1,[pc,#104] ; [0xd18] = 0xf4240
        0x00000cae:    9800        ..      LDR      r0,[sp,#0]
        0x00000cb0:    4288        .B      CMP      r0,r1
        0x00000cb2:    d805        ..      BHI      0xcc0 ; TIMER_Delay + 52
        0x00000cb4:    207d        }       MOVS     r0,#0x7d
        0x00000cb6:    00c0        ..      LSLS     r0,r0,#3
        0x00000cb8:    4284        .B      CMP      r4,r0
        0x00000cba:    d205        ..      BCS      0xcc8 ; TIMER_Delay + 60
        0x00000cbc:    4604        .F      MOV      r4,r0
        0x00000cbe:    e006        ..      B        0xcce ; TIMER_Delay + 66
        0x00000cc0:    2c64        d,      CMP      r4,#0x64
        0x00000cc2:    d201        ..      BCS      0xcc8 ; TIMER_Delay + 60
        0x00000cc4:    2464        d$      MOVS     r4,#0x64
        0x00000cc6:    e002        ..      B        0xcce ; TIMER_Delay + 66
        0x00000cc8:    428c        .B      CMP      r4,r1
        0x00000cca:    d900        ..      BLS      0xcce ; TIMER_Delay + 66
        0x00000ccc:    460c        .F      MOV      r4,r1
        0x00000cce:    9800        ..      LDR      r0,[sp,#0]
        0x00000cd0:    4288        .B      CMP      r0,r1
        0x00000cd2:    d808        ..      BHI      0xce6 ; TIMER_Delay + 90
        0x00000cd4:    4601        .F      MOV      r1,r0
        0x00000cd6:    4811        .H      LDR      r0,[pc,#68] ; [0xd1c] = 0x3b9aca00
        0x00000cd8:    f7fffa30    ..0.    BL       __aeabi_uidiv ; 0x13c
        0x00000cdc:    4601        .F      MOV      r1,r0
        0x00000cde:    207d        }       MOVS     r0,#0x7d
        0x00000ce0:    00c0        ..      LSLS     r0,r0,#3
        0x00000ce2:    4360        `C      MULS     r0,r4,r0
        0x00000ce4:    e005        ..      B        0xcf2 ; TIMER_Delay + 102
        0x00000ce6:    f7fffa29    ..).    BL       __aeabi_uidiv ; 0x13c
        0x00000cea:    4360        `C      MULS     r0,r4,r0
        0x00000cec:    0e07        ..      LSRS     r7,r0,#24
        0x00000cee:    d002        ..      BEQ      0xcf6 ; TIMER_Delay + 106
        0x00000cf0:    1c79        y.      ADDS     r1,r7,#1
        0x00000cf2:    f7fffa23    ..#.    BL       __aeabi_uidiv ; 0x13c
        0x00000cf6:    6070        p`      STR      r0,[r6,#4]
        0x00000cf8:    2001        .       MOVS     r0,#1
        0x00000cfa:    0780        ..      LSLS     r0,r0,#30
        0x00000cfc:    4307        .C      ORRS     r7,r7,r0
        0x00000cfe:    6037        7`      STR      r7,[r6,#0]
        0x00000d00:    2d00        .-      CMP      r5,#0
        0x00000d02:    d002        ..      BEQ      0xd0a ; TIMER_Delay + 126
        0x00000d04:    bf00        ..      NOP      
        0x00000d06:    1e6d        m.      SUBS     r5,r5,#1
        0x00000d08:    d1fc        ..      BNE      0xd04 ; TIMER_Delay + 120
        0x00000d0a:    6830        0h      LDR      r0,[r6,#0]
        0x00000d0c:    0180        ..      LSLS     r0,r0,#6
        0x00000d0e:    d4fc        ..      BMI      0xd0a ; TIMER_Delay + 126
        0x00000d10:    bdf8        ..      POP      {r3-r7,pc}
    $d
        0x00000d12:    0000        ..      DCW    0
        0x00000d14:    20000000    ...     DCD    536870912
        0x00000d18:    000f4240    @B..    DCD    1000000
        0x00000d1c:    3b9aca00    ...;    DCD    1000000000
    $t
    i.TIMER_GetModuleClock
    TIMER_GetModuleClock
        0x00000d20:    b510        ..      PUSH     {r4,lr}
        0x00000d22:    b088        ..      SUB      sp,sp,#0x20
        0x00000d24:    4604        .F      MOV      r4,r0
        0x00000d26:    2220         "      MOVS     r2,#0x20
        0x00000d28:    4912        .I      LDR      r1,[pc,#72] ; [0xd74] = 0x2794
        0x00000d2a:    4668        hF      MOV      r0,sp
        0x00000d2c:    f7fffa30    ..0.    BL       __aeabi_memcpy ; 0x190
        0x00000d30:    4911        .I      LDR      r1,[pc,#68] ; [0xd78] = 0x40010000
        0x00000d32:    4812        .H      LDR      r0,[pc,#72] ; [0xd7c] = 0x50000200
        0x00000d34:    428c        .B      CMP      r4,r1
        0x00000d36:    d102        ..      BNE      0xd3e ; TIMER_GetModuleClock + 30
        0x00000d38:    6940        @i      LDR      r0,[r0,#0x14]
        0x00000d3a:    0a00        ..      LSRS     r0,r0,#8
        0x00000d3c:    e00d        ..      B        0xd5a ; TIMER_GetModuleClock + 58
        0x00000d3e:    490e        .I      LDR      r1,[pc,#56] ; [0xd78] = 0x40010000
        0x00000d40:    3120         1      ADDS     r1,r1,#0x20
        0x00000d42:    428c        .B      CMP      r4,r1
        0x00000d44:    d102        ..      BNE      0xd4c ; TIMER_GetModuleClock + 44
        0x00000d46:    6940        @i      LDR      r0,[r0,#0x14]
        0x00000d48:    0b00        ..      LSRS     r0,r0,#12
        0x00000d4a:    e006        ..      B        0xd5a ; TIMER_GetModuleClock + 58
        0x00000d4c:    490c        .I      LDR      r1,[pc,#48] ; [0xd80] = 0x40110000
        0x00000d4e:    6940        @i      LDR      r0,[r0,#0x14]
        0x00000d50:    428c        .B      CMP      r4,r1
        0x00000d52:    d101        ..      BNE      0xd58 ; TIMER_GetModuleClock + 56
        0x00000d54:    0c00        ..      LSRS     r0,r0,#16
        0x00000d56:    e000        ..      B        0xd5a ; TIMER_GetModuleClock + 58
        0x00000d58:    0d00        ..      LSRS     r0,r0,#20
        0x00000d5a:    0740        @.      LSLS     r0,r0,#29
        0x00000d5c:    0f40        @.      LSRS     r0,r0,#29
        0x00000d5e:    2802        .(      CMP      r0,#2
        0x00000d60:    d004        ..      BEQ      0xd6c ; TIMER_GetModuleClock + 76
        0x00000d62:    0080        ..      LSLS     r0,r0,#2
        0x00000d64:    4669        iF      MOV      r1,sp
        0x00000d66:    5808        .X      LDR      r0,[r1,r0]
        0x00000d68:    b008        ..      ADD      sp,sp,#0x20
        0x00000d6a:    bd10        ..      POP      {r4,pc}
        0x00000d6c:    4805        .H      LDR      r0,[pc,#20] ; [0xd84] = 0x20000000
        0x00000d6e:    6800        .h      LDR      r0,[r0,#0]
        0x00000d70:    e7fa        ..      B        0xd68 ; TIMER_GetModuleClock + 72
    $d
        0x00000d72:    0000        ..      DCW    0
        0x00000d74:    00002794    .'..    DCD    10132
        0x00000d78:    40010000    ...@    DCD    1073807360
        0x00000d7c:    50000200    ...P    DCD    1342177792
        0x00000d80:    40110000    ...@    DCD    1074855936
        0x00000d84:    20000000    ...     DCD    536870912
    $t
    i.TIMER_Open
    TIMER_Open
        0x00000d88:    b5f7        ..      PUSH     {r0-r2,r4-r7,lr}
        0x00000d8a:    4617        .F      MOV      r7,r2
        0x00000d8c:    4606        .F      MOV      r6,r0
        0x00000d8e:    f7ffffc7    ....    BL       TIMER_GetModuleClock ; 0xd20
        0x00000d92:    4605        .F      MOV      r5,r0
        0x00000d94:    2400        .$      MOVS     r4,#0
        0x00000d96:    0840        @.      LSRS     r0,r0,#1
        0x00000d98:    42b8        .B      CMP      r0,r7
        0x00000d9a:    d201        ..      BCS      0xda0 ; TIMER_Open + 24
        0x00000d9c:    2002        .       MOVS     r0,#2
        0x00000d9e:    e008        ..      B        0xdb2 ; TIMER_Open + 42
        0x00000da0:    4639        9F      MOV      r1,r7
        0x00000da2:    4628        (F      MOV      r0,r5
        0x00000da4:    f7fff9ca    ....    BL       __aeabi_uidiv ; 0x13c
        0x00000da8:    0e04        ..      LSRS     r4,r0,#24
        0x00000daa:    d002        ..      BEQ      0xdb2 ; TIMER_Open + 42
        0x00000dac:    1c61        a.      ADDS     r1,r4,#1
        0x00000dae:    f7fff9c5    ....    BL       __aeabi_uidiv ; 0x13c
        0x00000db2:    9901        ..      LDR      r1,[sp,#4]
        0x00000db4:    4321        !C      ORRS     r1,r1,r4
        0x00000db6:    6031        1`      STR      r1,[r6,#0]
        0x00000db8:    6070        p`      STR      r0,[r6,#4]
        0x00000dba:    1c64        d.      ADDS     r4,r4,#1
        0x00000dbc:    4360        `C      MULS     r0,r4,r0
        0x00000dbe:    4601        .F      MOV      r1,r0
        0x00000dc0:    4628        (F      MOV      r0,r5
        0x00000dc2:    f7fff9bb    ....    BL       __aeabi_uidiv ; 0x13c
        0x00000dc6:    bdfe        ..      POP      {r1-r7,pc}
    i.TMR1_IRQHandler
    TMR1_IRQHandler
        0x00000dc8:    b510        ..      PUSH     {r4,lr}
        0x00000dca:    490e        .I      LDR      r1,[pc,#56] ; [0xe04] = 0x40010020
        0x00000dcc:    6888        .h      LDR      r0,[r1,#8]
        0x00000dce:    07c0        ..      LSLS     r0,r0,#31
        0x00000dd0:    0fc0        ..      LSRS     r0,r0,#31
        0x00000dd2:    d016        ..      BEQ      0xe02 ; TMR1_IRQHandler + 58
        0x00000dd4:    2201        ."      MOVS     r2,#1
        0x00000dd6:    608a        .`      STR      r2,[r1,#8]
        0x00000dd8:    490b        .I      LDR      r1,[pc,#44] ; [0xe08] = 0x2000002c
        0x00000dda:    8988        ..      LDRH     r0,[r1,#0xc]
        0x00000ddc:    1c43        C.      ADDS     r3,r0,#1
        0x00000dde:    818b        ..      STRH     r3,[r1,#0xc]
        0x00000de0:    237d        }#      MOVS     r3,#0x7d
        0x00000de2:    00db        ..      LSLS     r3,r3,#3
        0x00000de4:    4298        .B      CMP      r0,r3
        0x00000de6:    d30c        ..      BCC      0xe02 ; TMR1_IRQHandler + 58
        0x00000de8:    2000        .       MOVS     r0,#0
        0x00000dea:    8188        ..      STRH     r0,[r1,#0xc]
        0x00000dec:    4807        .H      LDR      r0,[pc,#28] ; [0xe0c] = 0x50004240
        0x00000dee:    6903        .i      LDR      r3,[r0,#0x10]
        0x00000df0:    4053        S@      EORS     r3,r3,r2
        0x00000df2:    6103        .a      STR      r3,[r0,#0x10]
        0x00000df4:    690a        .i      LDR      r2,[r1,#0x10]
        0x00000df6:    1c50        P.      ADDS     r0,r2,#1
        0x00000df8:    6108        .a      STR      r0,[r1,#0x10]
        0x00000dfa:    4905        .I      LDR      r1,[pc,#20] ; [0xe10] = 0x271a
        0x00000dfc:    a005        ..      ADR      r0,{pc}+0x18 ; 0xe14
        0x00000dfe:    f000f91b    ....    BL       __0printf$8 ; 0x1038
        0x00000e02:    bd10        ..      POP      {r4,pc}
    $d
        0x00000e04:    40010020     ..@    DCD    1073807392
        0x00000e08:    2000002c    ,..     DCD    536870956
        0x00000e0c:    50004240    @B.P    DCD    1342194240
        0x00000e10:    0000271a    .'..    DCD    10010
        0x00000e14:    3a207325    %s :    DCD    975205157
        0x00000e18:    64322520     %2d    DCD    1681007904
        0x00000e1c:    00000a0d    ....    DCD    2573
    $t
    i.UART02_IRQHandler
    UART02_IRQHandler
        0x00000e20:    b510        ..      PUSH     {r4,lr}
        0x00000e22:    4c0e        .L      LDR      r4,[pc,#56] ; [0xe5c] = 0x40050000
        0x00000e24:    69e0        .i      LDR      r0,[r4,#0x1c]
        0x00000e26:    2111        .!      MOVS     r1,#0x11
        0x00000e28:    0209        ..      LSLS     r1,r1,#8
        0x00000e2a:    4208        .B      TST      r0,r1
        0x00000e2c:    d102        ..      BNE      0xe34 ; UART02_IRQHandler + 20
        0x00000e2e:    e004        ..      B        0xe3a ; UART02_IRQHandler + 26
        0x00000e30:    f000f88e    ....    BL       UARTx_Process ; 0xf50
        0x00000e34:    69a1        .i      LDR      r1,[r4,#0x18]
        0x00000e36:    0449        I.      LSLS     r1,r1,#17
        0x00000e38:    d5fa        ..      BPL      0xe30 ; UART02_IRQHandler + 16
        0x00000e3a:    69e0        .i      LDR      r0,[r4,#0x1c]
        0x00000e3c:    0481        ..      LSLS     r1,r0,#18
        0x00000e3e:    d504        ..      BPL      0xe4a ; UART02_IRQHandler + 42
        0x00000e40:    2101        .!      MOVS     r1,#1
        0x00000e42:    0349        I.      LSLS     r1,r1,#13
        0x00000e44:    4620         F      MOV      r0,r4
        0x00000e46:    f000f80b    ....    BL       UART_ClearIntFlag ; 0xe60
        0x00000e4a:    69e1        .i      LDR      r1,[r4,#0x1c]
        0x00000e4c:    4620         F      MOV      r0,r4
        0x00000e4e:    0549        I.      LSLS     r1,r1,#21
        0x00000e50:    d503        ..      BPL      0xe5a ; UART02_IRQHandler + 58
        0x00000e52:    2101        .!      MOVS     r1,#1
        0x00000e54:    0289        ..      LSLS     r1,r1,#10
        0x00000e56:    f000f803    ....    BL       UART_ClearIntFlag ; 0xe60
        0x00000e5a:    bd10        ..      POP      {r4,pc}
    $d
        0x00000e5c:    40050000    ...@    DCD    1074069504
    $t
    i.UART_ClearIntFlag
    UART_ClearIntFlag
        0x00000e60:    054a        J.      LSLS     r2,r1,#21
        0x00000e62:    d503        ..      BPL      0xe6c ; UART_ClearIntFlag + 12
        0x00000e64:    2270        p"      MOVS     r2,#0x70
        0x00000e66:    6182        .a      STR      r2,[r0,#0x18]
        0x00000e68:    2208        ."      MOVS     r2,#8
        0x00000e6a:    6182        .a      STR      r2,[r0,#0x18]
        0x00000e6c:    050a        ..      LSLS     r2,r1,#20
        0x00000e6e:    d503        ..      BPL      0xe78 ; UART_ClearIntFlag + 24
        0x00000e70:    6942        Bi      LDR      r2,[r0,#0x14]
        0x00000e72:    2301        .#      MOVS     r3,#1
        0x00000e74:    431a        .C      ORRS     r2,r2,r3
        0x00000e76:    6142        Ba      STR      r2,[r0,#0x14]
        0x00000e78:    048a        ..      LSLS     r2,r1,#18
        0x00000e7a:    d501        ..      BPL      0xe80 ; UART_ClearIntFlag + 32
        0x00000e7c:    4a04        .J      LDR      r2,[pc,#16] ; [0xe90] = 0x1000001
        0x00000e7e:    6182        .a      STR      r2,[r0,#0x18]
        0x00000e80:    0409        ..      LSLS     r1,r1,#16
        0x00000e82:    d503        ..      BPL      0xe8c ; UART_ClearIntFlag + 44
        0x00000e84:    2180        .!      MOVS     r1,#0x80
        0x00000e86:    61c1        .a      STR      r1,[r0,#0x1c]
        0x00000e88:    4902        .I      LDR      r1,[pc,#8] ; [0xe94] = 0x30f
        0x00000e8a:    6381        .c      STR      r1,[r0,#0x38]
        0x00000e8c:    4770        pG      BX       lr
    $d
        0x00000e8e:    0000        ..      DCW    0
        0x00000e90:    01000001    ....    DCD    16777217
        0x00000e94:    0000030f    ....    DCD    783
    $t
    i.UART_EnableInt
    UART_EnableInt
        0x00000e98:    6842        Bh      LDR      r2,[r0,#4]
        0x00000e9a:    430a        .C      ORRS     r2,r2,r1
        0x00000e9c:    6042        B`      STR      r2,[r0,#4]
        0x00000e9e:    4b07        .K      LDR      r3,[pc,#28] ; [0xebc] = 0x40050000
        0x00000ea0:    2201        ."      MOVS     r2,#1
        0x00000ea2:    0312        ..      LSLS     r2,r2,#12
        0x00000ea4:    4906        .I      LDR      r1,[pc,#24] ; [0xec0] = 0xe000e100
        0x00000ea6:    4298        .B      CMP      r0,r3
        0x00000ea8:    d101        ..      BNE      0xeae ; UART_EnableInt + 22
        0x00000eaa:    600a        .`      STR      r2,[r1,#0]
        0x00000eac:    4770        pG      BX       lr
        0x00000eae:    4b05        .K      LDR      r3,[pc,#20] ; [0xec4] = 0x40150000
        0x00000eb0:    4298        .B      CMP      r0,r3
        0x00000eb2:    d1fa        ..      BNE      0xeaa ; UART_EnableInt + 18
        0x00000eb4:    2001        .       MOVS     r0,#1
        0x00000eb6:    0340        @.      LSLS     r0,r0,#13
        0x00000eb8:    6008        .`      STR      r0,[r1,#0]
        0x00000eba:    4770        pG      BX       lr
    $d
        0x00000ebc:    40050000    ...@    DCD    1074069504
        0x00000ec0:    e000e100    ....    DCD    3758153984
        0x00000ec4:    40150000    ...@    DCD    1075118080
    $t
    i.UART_Open
    UART_Open
        0x00000ec8:    b5f0        ..      PUSH     {r4-r7,lr}
        0x00000eca:    4604        .F      MOV      r4,r0
        0x00000ecc:    481c        .H      LDR      r0,[pc,#112] ; [0xf40] = 0x272c
        0x00000ece:    460d        .F      MOV      r5,r1
        0x00000ed0:    c80f        ..      LDM      r0,{r0-r3}
        0x00000ed2:    b085        ..      SUB      sp,sp,#0x14
        0x00000ed4:    466e        nF      MOV      r6,sp
        0x00000ed6:    c60f        ..      STM      r6!,{r0-r3}
        0x00000ed8:    481a        .H      LDR      r0,[pc,#104] ; [0xf44] = 0x50000200
        0x00000eda:    6941        Ai      LDR      r1,[r0,#0x14]
        0x00000edc:    6980        .i      LDR      r0,[r0,#0x18]
        0x00000ede:    018a        ..      LSLS     r2,r1,#6
        0x00000ee0:    2103        .!      MOVS     r1,#3
        0x00000ee2:    0f96        ..      LSRS     r6,r2,#30
        0x00000ee4:    0500        ..      LSLS     r0,r0,#20
        0x00000ee6:    0f07        ..      LSRS     r7,r0,#28
        0x00000ee8:    2000        .       MOVS     r0,#0
        0x00000eea:    6320         c      STR      r0,[r4,#0x30]
        0x00000eec:    60e1        .`      STR      r1,[r4,#0xc]
        0x00000eee:    68a0        .h      LDR      r0,[r4,#8]
        0x00000ef0:    4915        .I      LDR      r1,[pc,#84] ; [0xf48] = 0xfff0ff0f
        0x00000ef2:    4008        .@      ANDS     r0,r0,r1
        0x00000ef4:    60a0        .`      STR      r0,[r4,#8]
        0x00000ef6:    2e01        ..      CMP      r6,#1
        0x00000ef8:    d102        ..      BNE      0xf00 ; UART_Open + 56
        0x00000efa:    f7fffad9    ....    BL       CLK_GetPLLClockFreq ; 0x4b0
        0x00000efe:    9001        ..      STR      r0,[sp,#4]
        0x00000f00:    2d00        .-      CMP      r5,#0
        0x00000f02:    d01b        ..      BEQ      0xf3c ; UART_Open + 116
        0x00000f04:    00b1        ..      LSLS     r1,r6,#2
        0x00000f06:    4668        hF      MOV      r0,sp
        0x00000f08:    5840        @X      LDR      r0,[r0,r1]
        0x00000f0a:    1c79        y.      ADDS     r1,r7,#1
        0x00000f0c:    f7fff916    ....    BL       __aeabi_uidiv ; 0x13c
        0x00000f10:    4606        .F      MOV      r6,r0
        0x00000f12:    0869        i.      LSRS     r1,r5,#1
        0x00000f14:    1840        @.      ADDS     r0,r0,r1
        0x00000f16:    4629        )F      MOV      r1,r5
        0x00000f18:    f7fff910    ....    BL       __aeabi_uidiv ; 0x13c
        0x00000f1c:    490b        .I      LDR      r1,[pc,#44] ; [0xf4c] = 0xffff
        0x00000f1e:    1e80        ..      SUBS     r0,r0,#2
        0x00000f20:    4288        .B      CMP      r0,r1
        0x00000f22:    d907        ..      BLS      0xf34 ; UART_Open + 108
        0x00000f24:    00e9        ..      LSLS     r1,r5,#3
        0x00000f26:    1870        p.      ADDS     r0,r6,r1
        0x00000f28:    4629        )F      MOV      r1,r5
        0x00000f2a:    f7fff907    ....    BL       __aeabi_uidiv ; 0x13c
        0x00000f2e:    0900        ..      LSRS     r0,r0,#4
        0x00000f30:    1e80        ..      SUBS     r0,r0,#2
        0x00000f32:    e002        ..      B        0xf3a ; UART_Open + 114
        0x00000f34:    2103        .!      MOVS     r1,#3
        0x00000f36:    0709        ..      LSLS     r1,r1,#28
        0x00000f38:    4308        .C      ORRS     r0,r0,r1
        0x00000f3a:    6260        `b      STR      r0,[r4,#0x24]
        0x00000f3c:    b005        ..      ADD      sp,sp,#0x14
        0x00000f3e:    bdf0        ..      POP      {r4-r7,pc}
    $d
        0x00000f40:    0000272c    ,'..    DCD    10028
        0x00000f44:    50000200    ...P    DCD    1342177792
        0x00000f48:    fff0ff0f    ....    DCD    4293984015
        0x00000f4c:    0000ffff    ....    DCD    65535
    $t
    i.UARTx_Process
    UARTx_Process
        0x00000f50:    b510        ..      PUSH     {r4,lr}
        0x00000f52:    480e        .H      LDR      r0,[pc,#56] ; [0xf8c] = 0x40050000
        0x00000f54:    6800        .h      LDR      r0,[r0,#0]
        0x00000f56:    b2c0        ..      UXTB     r0,r0
        0x00000f58:    2878        x(      CMP      r0,#0x78
        0x00000f5a:    d007        ..      BEQ      0xf6c ; UARTx_Process + 28
        0x00000f5c:    2858        X(      CMP      r0,#0x58
        0x00000f5e:    d005        ..      BEQ      0xf6c ; UARTx_Process + 28
        0x00000f60:    287f        .(      CMP      r0,#0x7f
        0x00000f62:    d90b        ..      BLS      0xf7c ; UARTx_Process + 44
        0x00000f64:    a00a        ..      ADR      r0,{pc}+0x2c ; 0xf90
        0x00000f66:    f000f867    ..g.    BL       __0printf$8 ; 0x1038
        0x00000f6a:    bd10        ..      POP      {r4,pc}
        0x00000f6c:    f3bf8f4f    ..O.    DSB      
        0x00000f70:    490d        .I      LDR      r1,[pc,#52] ; [0xfa8] = 0xe000ed00
        0x00000f72:    480c        .H      LDR      r0,[pc,#48] ; [0xfa4] = 0x5fa0004
        0x00000f74:    60c8        .`      STR      r0,[r1,#0xc]
        0x00000f76:    f3bf8f4f    ..O.    DSB      
        0x00000f7a:    e7fe        ..      B        0xf7a ; UARTx_Process + 42
        0x00000f7c:    3830        08      SUBS     r0,r0,#0x30
        0x00000f7e:    b2c1        ..      UXTB     r1,r0
        0x00000f80:    480a        .H      LDR      r0,[pc,#40] ; [0xfac] = 0x2000002c
        0x00000f82:    7001        .p      STRB     r1,[r0,#0]
        0x00000f84:    a00a        ..      ADR      r0,{pc}+0x2c ; 0xfb0
        0x00000f86:    f000f857    ..W.    BL       __0printf$8 ; 0x1038
        0x00000f8a:    bd10        ..      POP      {r4,pc}
    $d
        0x00000f8c:    40050000    ...@    DCD    1074069504
        0x00000f90:    61766e69    inva    DCD    1635151465
        0x00000f94:    2064696c    lid     DCD    543451500
        0x00000f98:    6d6d6f63    comm    DCD    1835888483
        0x00000f9c:    0d646e61    and.    DCD    224685665
        0x00000fa0:    0000000a    ....    DCD    10
        0x00000fa4:    05fa0004    ....    DCD    100270084
        0x00000fa8:    e000ed00    ....    DCD    3758157056
        0x00000fac:    2000002c    ,..     DCD    536870956
        0x00000fb0:    6f6d6544    Demo    DCD    1869440324
        0x00000fb4:    74617453    Stat    DCD    1952543827
        0x00000fb8:    203d2065    e =     DCD    540876901
        0x00000fbc:    0d643225    %2d.    DCD    224670245
        0x00000fc0:    0000000a    ....    DCD    10
    $t
    i.WS2812C_DATA0
    WS2812C_DATA0
        0x00000fc4:    4803        .H      LDR      r0,[pc,#12] ; [0xfd4] = 0x40030000
        0x00000fc6:    21c0        .!      MOVS     r1,#0xc0
        0x00000fc8:    6201        .b      STR      r1,[r0,#0x20]
        0x00000fca:    6801        .h      LDR      r1,[r0,#0]
        0x00000fcc:    2201        ."      MOVS     r2,#1
        0x00000fce:    4311        .C      ORRS     r1,r1,r2
        0x00000fd0:    6001        .`      STR      r1,[r0,#0]
        0x00000fd2:    4770        pG      BX       lr
    $d
        0x00000fd4:    40030000    ...@    DCD    1073938432
    $t
    i.WS2812C_DATA1
    WS2812C_DATA1
        0x00000fd8:    4803        .H      LDR      r0,[pc,#12] ; [0xfe8] = 0x40030000
        0x00000fda:    21fc        .!      MOVS     r1,#0xfc
        0x00000fdc:    6201        .b      STR      r1,[r0,#0x20]
        0x00000fde:    6801        .h      LDR      r1,[r0,#0]
        0x00000fe0:    2201        ."      MOVS     r2,#1
        0x00000fe2:    4311        .C      ORRS     r1,r1,r2
        0x00000fe4:    6001        .`      STR      r1,[r0,#0]
        0x00000fe6:    4770        pG      BX       lr
    $d
        0x00000fe8:    40030000    ...@    DCD    1073938432
    $t
    i.WS2812C_Initial
    WS2812C_Initial
        0x00000fec:    b538        8.      PUSH     {r3-r5,lr}
        0x00000fee:    4807        .H      LDR      r0,[pc,#28] ; [0x100c] = 0x6acfc0
        0x00000ff0:    4c07        .L      LDR      r4,[pc,#28] ; [0x1010] = 0x40030000
        0x00000ff2:    9000        ..      STR      r0,[sp,#0]
        0x00000ff4:    2308        .#      MOVS     r3,#8
        0x00000ff6:    2204        ."      MOVS     r2,#4
        0x00000ff8:    2100        .!      MOVS     r1,#0
        0x00000ffa:    4620         F      MOV      r0,r4
        0x00000ffc:    f7fffbec    ....    BL       SPI_Open ; 0x7d8
        0x00001000:    2200        ."      MOVS     r2,#0
        0x00001002:    2101        .!      MOVS     r1,#1
        0x00001004:    4620         F      MOV      r0,r4
        0x00001006:    f7fffbdd    ....    BL       SPI_EnableAutoSS ; 0x7c4
        0x0000100a:    bd38        8.      POP      {r3-r5,pc}
    $d
        0x0000100c:    006acfc0    ..j.    DCD    7000000
        0x00001010:    40030000    ...@    DCD    1073938432
    $t
    i.WS2812C_Send_1Byte
    WS2812C_Send_1Byte
        0x00001014:    b510        ..      PUSH     {r4,lr}
        0x00001016:    4604        .F      MOV      r4,r0
        0x00001018:    2300        .#      MOVS     r3,#0
        0x0000101a:    0620         .      LSLS     r0,r4,#24
        0x0000101c:    d502        ..      BPL      0x1024 ; WS2812C_Send_1Byte + 16
        0x0000101e:    f7ffffdb    ....    BL       WS2812C_DATA1 ; 0xfd8
        0x00001022:    e001        ..      B        0x1028 ; WS2812C_Send_1Byte + 20
        0x00001024:    f7ffffce    ....    BL       WS2812C_DATA0 ; 0xfc4
        0x00001028:    0660        `.      LSLS     r0,r4,#25
        0x0000102a:    1c5b        [.      ADDS     r3,r3,#1
        0x0000102c:    0e04        ..      LSRS     r4,r0,#24
        0x0000102e:    b2db        ..      UXTB     r3,r3
        0x00001030:    2b08        .+      CMP      r3,#8
        0x00001032:    d3f2        ..      BCC      0x101a ; WS2812C_Send_1Byte + 6
        0x00001034:    bd10        ..      POP      {r4,pc}
        0x00001036:    0000        ..      MOVS     r0,r0
    i.__0printf$8
    __0printf$8
    __1printf$8
    __2printf
        0x00001038:    b40f        ..      PUSH     {r0-r3}
        0x0000103a:    b510        ..      PUSH     {r4,lr}
        0x0000103c:    a903        ..      ADD      r1,sp,#0xc
        0x0000103e:    4b04        .K      LDR      r3,[pc,#16] ; [0x1050] = 0x15dd
        0x00001040:    4a04        .J      LDR      r2,[pc,#16] ; [0x1054] = 0x20000040
        0x00001042:    9802        ..      LDR      r0,[sp,#8]
        0x00001044:    f000f824    ..$.    BL       _printf_core ; 0x1090
        0x00001048:    bc10        ..      POP      {r4}
        0x0000104a:    bc08        ..      POP      {r3}
        0x0000104c:    b004        ..      ADD      sp,sp,#0x10
        0x0000104e:    4718        .G      BX       r3
    $d
        0x00001050:    000015dd    ....    DCD    5597
        0x00001054:    20000040    @..     DCD    536870976
    $t
    i.__ARM_common_switch8
    __ARM_common_switch8
        0x00001058:    b430        0.      PUSH     {r4,r5}
        0x0000105a:    4674        tF      MOV      r4,lr
        0x0000105c:    1e64        d.      SUBS     r4,r4,#1
        0x0000105e:    7825        %x      LDRB     r5,[r4,#0]
        0x00001060:    1c64        d.      ADDS     r4,r4,#1
        0x00001062:    42ab        .B      CMP      r3,r5
        0x00001064:    d200        ..      BCS      0x1068 ; __ARM_common_switch8 + 16
        0x00001066:    461d        .F      MOV      r5,r3
        0x00001068:    5d63        c]      LDRB     r3,[r4,r5]
        0x0000106a:    005b        [.      LSLS     r3,r3,#1
        0x0000106c:    18e3        ..      ADDS     r3,r4,r3
        0x0000106e:    bc30        0.      POP      {r4,r5}
        0x00001070:    4718        .G      BX       r3
    i.__scatterload_copy
    __scatterload_copy
        0x00001072:    e002        ..      B        0x107a ; __scatterload_copy + 8
        0x00001074:    c808        ..      LDM      r0!,{r3}
        0x00001076:    1f12        ..      SUBS     r2,r2,#4
        0x00001078:    c108        ..      STM      r1!,{r3}
        0x0000107a:    2a00        .*      CMP      r2,#0
        0x0000107c:    d1fa        ..      BNE      0x1074 ; __scatterload_copy + 2
        0x0000107e:    4770        pG      BX       lr
    i.__scatterload_null
    __scatterload_null
        0x00001080:    4770        pG      BX       lr
    i.__scatterload_zeroinit
    __scatterload_zeroinit
        0x00001082:    2000        .       MOVS     r0,#0
        0x00001084:    e001        ..      B        0x108a ; __scatterload_zeroinit + 8
        0x00001086:    c101        ..      STM      r1!,{r0}
        0x00001088:    1f12        ..      SUBS     r2,r2,#4
        0x0000108a:    2a00        .*      CMP      r2,#0
        0x0000108c:    d1fb        ..      BNE      0x1086 ; __scatterload_zeroinit + 4
        0x0000108e:    4770        pG      BX       lr
    i._printf_core
    _printf_core
        0x00001090:    b5ff        ..      PUSH     {r0-r7,lr}
        0x00001092:    b091        ..      SUB      sp,sp,#0x44
        0x00001094:    460f        .F      MOV      r7,r1
        0x00001096:    4605        .F      MOV      r5,r0
        0x00001098:    2600        .&      MOVS     r6,#0
        0x0000109a:    e006        ..      B        0x10aa ; _printf_core + 26
        0x0000109c:    2825        %(      CMP      r0,#0x25
        0x0000109e:    d00a        ..      BEQ      0x10b6 ; _printf_core + 38
        0x000010a0:    9a14        ..      LDR      r2,[sp,#0x50]
        0x000010a2:    9913        ..      LDR      r1,[sp,#0x4c]
        0x000010a4:    4790        .G      BLX      r2
        0x000010a6:    1c6d        m.      ADDS     r5,r5,#1
        0x000010a8:    1c76        v.      ADDS     r6,r6,#1
        0x000010aa:    7828        (x      LDRB     r0,[r5,#0]
        0x000010ac:    2800        .(      CMP      r0,#0
        0x000010ae:    d1f5        ..      BNE      0x109c ; _printf_core + 12
        0x000010b0:    4630        0F      MOV      r0,r6
        0x000010b2:    b015        ..      ADD      sp,sp,#0x54
        0x000010b4:    bdf0        ..      POP      {r4-r7,pc}
        0x000010b6:    2400        .$      MOVS     r4,#0
        0x000010b8:    9400        ..      STR      r4,[sp,#0]
        0x000010ba:    2101        .!      MOVS     r1,#1
        0x000010bc:    4af3        .J      LDR      r2,[pc,#972] ; [0x148c] = 0x12809
        0x000010be:    9402        ..      STR      r4,[sp,#8]
        0x000010c0:    e000        ..      B        0x10c4 ; _printf_core + 52
        0x000010c2:    4304        .C      ORRS     r4,r4,r0
        0x000010c4:    1c6d        m.      ADDS     r5,r5,#1
        0x000010c6:    782b        +x      LDRB     r3,[r5,#0]
        0x000010c8:    4608        .F      MOV      r0,r1
        0x000010ca:    3b20         ;      SUBS     r3,r3,#0x20
        0x000010cc:    4098        .@      LSLS     r0,r0,r3
        0x000010ce:    4210        .B      TST      r0,r2
        0x000010d0:    d1f7        ..      BNE      0x10c2 ; _printf_core + 50
        0x000010d2:    7828        (x      LDRB     r0,[r5,#0]
        0x000010d4:    282a        *(      CMP      r0,#0x2a
        0x000010d6:    d00e        ..      BEQ      0x10f6 ; _printf_core + 102
        0x000010d8:    2102        .!      MOVS     r1,#2
        0x000010da:    7828        (x      LDRB     r0,[r5,#0]
        0x000010dc:    4602        .F      MOV      r2,r0
        0x000010de:    3a30        0:      SUBS     r2,r2,#0x30
        0x000010e0:    2a09        .*      CMP      r2,#9
        0x000010e2:    d815        ..      BHI      0x1110 ; _printf_core + 128
        0x000010e4:    9a00        ..      LDR      r2,[sp,#0]
        0x000010e6:    230a        .#      MOVS     r3,#0xa
        0x000010e8:    435a        ZC      MULS     r2,r3,r2
        0x000010ea:    3a30        0:      SUBS     r2,r2,#0x30
        0x000010ec:    1880        ..      ADDS     r0,r0,r2
        0x000010ee:    430c        .C      ORRS     r4,r4,r1
        0x000010f0:    1c6d        m.      ADDS     r5,r5,#1
        0x000010f2:    9000        ..      STR      r0,[sp,#0]
        0x000010f4:    e7f1        ..      B        0x10da ; _printf_core + 74
        0x000010f6:    cf01        ..      LDM      r7!,{r0}
        0x000010f8:    9000        ..      STR      r0,[sp,#0]
        0x000010fa:    2800        .(      CMP      r0,#0
        0x000010fc:    da05        ..      BGE      0x110a ; _printf_core + 122
        0x000010fe:    2001        .       MOVS     r0,#1
        0x00001100:    0340        @.      LSLS     r0,r0,#13
        0x00001102:    4304        .C      ORRS     r4,r4,r0
        0x00001104:    9800        ..      LDR      r0,[sp,#0]
        0x00001106:    4240        @B      RSBS     r0,r0,#0
        0x00001108:    9000        ..      STR      r0,[sp,#0]
        0x0000110a:    2002        .       MOVS     r0,#2
        0x0000110c:    4304        .C      ORRS     r4,r4,r0
        0x0000110e:    1c6d        m.      ADDS     r5,r5,#1
        0x00001110:    7828        (x      LDRB     r0,[r5,#0]
        0x00001112:    282e        .(      CMP      r0,#0x2e
        0x00001114:    d115        ..      BNE      0x1142 ; _printf_core + 178
        0x00001116:    2004        .       MOVS     r0,#4
        0x00001118:    4304        .C      ORRS     r4,r4,r0
        0x0000111a:    7868        hx      LDRB     r0,[r5,#1]
        0x0000111c:    1c6d        m.      ADDS     r5,r5,#1
        0x0000111e:    282a        *(      CMP      r0,#0x2a
        0x00001120:    d10a        ..      BNE      0x1138 ; _printf_core + 168
        0x00001122:    cf01        ..      LDM      r7!,{r0}
        0x00001124:    1c6d        m.      ADDS     r5,r5,#1
        0x00001126:    9002        ..      STR      r0,[sp,#8]
        0x00001128:    e00b        ..      B        0x1142 ; _printf_core + 178
        0x0000112a:    9902        ..      LDR      r1,[sp,#8]
        0x0000112c:    220a        ."      MOVS     r2,#0xa
        0x0000112e:    4351        QC      MULS     r1,r2,r1
        0x00001130:    3930        09      SUBS     r1,r1,#0x30
        0x00001132:    1840        @.      ADDS     r0,r0,r1
        0x00001134:    1c6d        m.      ADDS     r5,r5,#1
        0x00001136:    9002        ..      STR      r0,[sp,#8]
        0x00001138:    7828        (x      LDRB     r0,[r5,#0]
        0x0000113a:    4601        .F      MOV      r1,r0
        0x0000113c:    3930        09      SUBS     r1,r1,#0x30
        0x0000113e:    2909        .)      CMP      r1,#9
        0x00001140:    d9f3        ..      BLS      0x112a ; _printf_core + 154
        0x00001142:    7828        (x      LDRB     r0,[r5,#0]
        0x00001144:    286c        l(      CMP      r0,#0x6c
        0x00001146:    d010        ..      BEQ      0x116a ; _printf_core + 218
        0x00001148:    dc06        ..      BGT      0x1158 ; _printf_core + 200
        0x0000114a:    284c        L(      CMP      r0,#0x4c
        0x0000114c:    d01a        ..      BEQ      0x1184 ; _printf_core + 244
        0x0000114e:    2868        h(      CMP      r0,#0x68
        0x00001150:    d00e        ..      BEQ      0x1170 ; _printf_core + 224
        0x00001152:    286a        j(      CMP      r0,#0x6a
        0x00001154:    d117        ..      BNE      0x1186 ; _printf_core + 246
        0x00001156:    e004        ..      B        0x1162 ; _printf_core + 210
        0x00001158:    2874        t(      CMP      r0,#0x74
        0x0000115a:    d013        ..      BEQ      0x1184 ; _printf_core + 244
        0x0000115c:    287a        z(      CMP      r0,#0x7a
        0x0000115e:    d112        ..      BNE      0x1186 ; _printf_core + 246
        0x00001160:    e010        ..      B        0x1184 ; _printf_core + 244
        0x00001162:    2001        .       MOVS     r0,#1
        0x00001164:    0540        @.      LSLS     r0,r0,#21
        0x00001166:    4304        .C      ORRS     r4,r4,r0
        0x00001168:    e00c        ..      B        0x1184 ; _printf_core + 244
        0x0000116a:    2101        .!      MOVS     r1,#1
        0x0000116c:    0509        ..      LSLS     r1,r1,#20
        0x0000116e:    e001        ..      B        0x1174 ; _printf_core + 228
        0x00001170:    2103        .!      MOVS     r1,#3
        0x00001172:    0509        ..      LSLS     r1,r1,#20
        0x00001174:    430c        .C      ORRS     r4,r4,r1
        0x00001176:    7869        ix      LDRB     r1,[r5,#1]
        0x00001178:    4281        .B      CMP      r1,r0
        0x0000117a:    d103        ..      BNE      0x1184 ; _printf_core + 244
        0x0000117c:    2001        .       MOVS     r0,#1
        0x0000117e:    0500        ..      LSLS     r0,r0,#20
        0x00001180:    1824        $.      ADDS     r4,r4,r0
        0x00001182:    1c6d        m.      ADDS     r5,r5,#1
        0x00001184:    1c6d        m.      ADDS     r5,r5,#1
        0x00001186:    7828        (x      LDRB     r0,[r5,#0]
        0x00001188:    9003        ..      STR      r0,[sp,#0xc]
        0x0000118a:    286e        n(      CMP      r0,#0x6e
        0x0000118c:    d01e        ..      BEQ      0x11cc ; _printf_core + 316
        0x0000118e:    dc0c        ..      BGT      0x11aa ; _printf_core + 282
        0x00001190:    2863        c(      CMP      r0,#0x63
        0x00001192:    d031        1.      BEQ      0x11f8 ; _printf_core + 360
        0x00001194:    dc04        ..      BGT      0x11a0 ; _printf_core + 272
        0x00001196:    2800        .(      CMP      r0,#0
        0x00001198:    d08a        ..      BEQ      0x10b0 ; _printf_core + 32
        0x0000119a:    2858        X(      CMP      r0,#0x58
        0x0000119c:    d111        ..      BNE      0x11c2 ; _printf_core + 306
        0x0000119e:    e0b2        ..      B        0x1306 ; _printf_core + 630
        0x000011a0:    2864        d(      CMP      r0,#0x64
        0x000011a2:    d07b        {.      BEQ      0x129c ; _printf_core + 524
        0x000011a4:    2869        i(      CMP      r0,#0x69
        0x000011a6:    d10c        ..      BNE      0x11c2 ; _printf_core + 306
        0x000011a8:    e078        x.      B        0x129c ; _printf_core + 524
        0x000011aa:    2873        s(      CMP      r0,#0x73
        0x000011ac:    d02d        -.      BEQ      0x120a ; _printf_core + 378
        0x000011ae:    dc04        ..      BGT      0x11ba ; _printf_core + 298
        0x000011b0:    286f        o(      CMP      r0,#0x6f
        0x000011b2:    d070        p.      BEQ      0x1296 ; _printf_core + 518
        0x000011b4:    2870        p(      CMP      r0,#0x70
        0x000011b6:    d104        ..      BNE      0x11c2 ; _printf_core + 306
        0x000011b8:    e0a7        ..      B        0x130a ; _printf_core + 634
        0x000011ba:    2875        u(      CMP      r0,#0x75
        0x000011bc:    d06c        l.      BEQ      0x1298 ; _printf_core + 520
        0x000011be:    2878        x(      CMP      r0,#0x78
        0x000011c0:    d06b        k.      BEQ      0x129a ; _printf_core + 522
        0x000011c2:    9a14        ..      LDR      r2,[sp,#0x50]
        0x000011c4:    9913        ..      LDR      r1,[sp,#0x4c]
        0x000011c6:    4790        .G      BLX      r2
        0x000011c8:    1c76        v.      ADDS     r6,r6,#1
        0x000011ca:    e062        b.      B        0x1292 ; _printf_core + 514
        0x000011cc:    0260        `.      LSLS     r0,r4,#9
        0x000011ce:    0f40        @.      LSRS     r0,r0,#29
        0x000011d0:    2802        .(      CMP      r0,#2
        0x000011d2:    d007        ..      BEQ      0x11e4 ; _printf_core + 340
        0x000011d4:    2803        .(      CMP      r0,#3
        0x000011d6:    d00a        ..      BEQ      0x11ee ; _printf_core + 350
        0x000011d8:    2804        .(      CMP      r0,#4
        0x000011da:    6838        8h      LDR      r0,[r7,#0]
        0x000011dc:    d00a        ..      BEQ      0x11f4 ; _printf_core + 356
        0x000011de:    6006        .`      STR      r6,[r0,#0]
        0x000011e0:    1d3f        ?.      ADDS     r7,r7,#4
        0x000011e2:    e056        V.      B        0x1292 ; _printf_core + 514
        0x000011e4:    6838        8h      LDR      r0,[r7,#0]
        0x000011e6:    17f1        ..      ASRS     r1,r6,#31
        0x000011e8:    6006        .`      STR      r6,[r0,#0]
        0x000011ea:    6041        A`      STR      r1,[r0,#4]
        0x000011ec:    e7f8        ..      B        0x11e0 ; _printf_core + 336
        0x000011ee:    6838        8h      LDR      r0,[r7,#0]
        0x000011f0:    8006        ..      STRH     r6,[r0,#0]
        0x000011f2:    e7f5        ..      B        0x11e0 ; _printf_core + 336
        0x000011f4:    7006        .p      STRB     r6,[r0,#0]
        0x000011f6:    e7f3        ..      B        0x11e0 ; _printf_core + 336
        0x000011f8:    7838        8x      LDRB     r0,[r7,#0]
        0x000011fa:    4669        iF      MOV      r1,sp
        0x000011fc:    7408        .t      STRB     r0,[r1,#0x10]
        0x000011fe:    2000        .       MOVS     r0,#0
        0x00001200:    7448        Ht      STRB     r0,[r1,#0x11]
        0x00001202:    a804        ..      ADD      r0,sp,#0x10
        0x00001204:    9003        ..      STR      r0,[sp,#0xc]
        0x00001206:    2001        .       MOVS     r0,#1
        0x00001208:    e003        ..      B        0x1212 ; _printf_core + 386
        0x0000120a:    6838        8h      LDR      r0,[r7,#0]
        0x0000120c:    9003        ..      STR      r0,[sp,#0xc]
        0x0000120e:    2000        .       MOVS     r0,#0
        0x00001210:    43c0        .C      MVNS     r0,r0
        0x00001212:    1d3f        ?.      ADDS     r7,r7,#4
        0x00001214:    0761        a.      LSLS     r1,r4,#29
        0x00001216:    d50f        ..      BPL      0x1238 ; _printf_core + 424
        0x00001218:    2100        .!      MOVS     r1,#0
        0x0000121a:    e001        ..      B        0x1220 ; _printf_core + 400
        0x0000121c:    9901        ..      LDR      r1,[sp,#4]
        0x0000121e:    1c49        I.      ADDS     r1,r1,#1
        0x00001220:    9a02        ..      LDR      r2,[sp,#8]
        0x00001222:    9101        ..      STR      r1,[sp,#4]
        0x00001224:    4291        .B      CMP      r1,r2
        0x00001226:    da13        ..      BGE      0x1250 ; _printf_core + 448
        0x00001228:    4281        .B      CMP      r1,r0
        0x0000122a:    dbf7        ..      BLT      0x121c ; _printf_core + 396
        0x0000122c:    9a01        ..      LDR      r2,[sp,#4]
        0x0000122e:    9903        ..      LDR      r1,[sp,#0xc]
        0x00001230:    5c89        .\      LDRB     r1,[r1,r2]
        0x00001232:    2900        .)      CMP      r1,#0
        0x00001234:    d1f2        ..      BNE      0x121c ; _printf_core + 396
        0x00001236:    e00b        ..      B        0x1250 ; _printf_core + 448
        0x00001238:    2100        .!      MOVS     r1,#0
        0x0000123a:    e001        ..      B        0x1240 ; _printf_core + 432
        0x0000123c:    9901        ..      LDR      r1,[sp,#4]
        0x0000123e:    1c49        I.      ADDS     r1,r1,#1
        0x00001240:    9101        ..      STR      r1,[sp,#4]
        0x00001242:    4281        .B      CMP      r1,r0
        0x00001244:    dbfa        ..      BLT      0x123c ; _printf_core + 428
        0x00001246:    9a01        ..      LDR      r2,[sp,#4]
        0x00001248:    9903        ..      LDR      r1,[sp,#0xc]
        0x0000124a:    5c89        .\      LDRB     r1,[r1,r2]
        0x0000124c:    2900        .)      CMP      r1,#0
        0x0000124e:    d1f5        ..      BNE      0x123c ; _printf_core + 428
        0x00001250:    9901        ..      LDR      r1,[sp,#4]
        0x00001252:    9800        ..      LDR      r0,[sp,#0]
        0x00001254:    9a13        ..      LDR      r2,[sp,#0x4c]
        0x00001256:    1a40        @.      SUBS     r0,r0,r1
        0x00001258:    9000        ..      STR      r0,[sp,#0]
        0x0000125a:    4621        !F      MOV      r1,r4
        0x0000125c:    9b14        ..      LDR      r3,[sp,#0x50]
        0x0000125e:    f000f93b    ..;.    BL       _printf_pre_padding ; 0x14d8
        0x00001262:    9901        ..      LDR      r1,[sp,#4]
        0x00001264:    1980        ..      ADDS     r0,r0,r6
        0x00001266:    1846        F.      ADDS     r6,r0,r1
        0x00001268:    e007        ..      B        0x127a ; _printf_core + 490
        0x0000126a:    9803        ..      LDR      r0,[sp,#0xc]
        0x0000126c:    9903        ..      LDR      r1,[sp,#0xc]
        0x0000126e:    7800        .x      LDRB     r0,[r0,#0]
        0x00001270:    1c49        I.      ADDS     r1,r1,#1
        0x00001272:    9103        ..      STR      r1,[sp,#0xc]
        0x00001274:    9a14        ..      LDR      r2,[sp,#0x50]
        0x00001276:    9913        ..      LDR      r1,[sp,#0x4c]
        0x00001278:    4790        .G      BLX      r2
        0x0000127a:    9801        ..      LDR      r0,[sp,#4]
        0x0000127c:    1e40        @.      SUBS     r0,r0,#1
        0x0000127e:    9001        ..      STR      r0,[sp,#4]
        0x00001280:    1c40        @.      ADDS     r0,r0,#1
        0x00001282:    d1f2        ..      BNE      0x126a ; _printf_core + 474
        0x00001284:    4621        !F      MOV      r1,r4
        0x00001286:    9b14        ..      LDR      r3,[sp,#0x50]
        0x00001288:    9a13        ..      LDR      r2,[sp,#0x4c]
        0x0000128a:    9800        ..      LDR      r0,[sp,#0]
        0x0000128c:    f000f914    ....    BL       _printf_post_padding ; 0x14b8
        0x00001290:    1986        ..      ADDS     r6,r0,r6
        0x00001292:    1c6d        m.      ADDS     r5,r5,#1
        0x00001294:    e709        ..      B        0x10aa ; _printf_core + 26
        0x00001296:    e041        A.      B        0x131c ; _printf_core + 652
        0x00001298:    e033        3.      B        0x1302 ; _printf_core + 626
        0x0000129a:    e034        4.      B        0x1306 ; _printf_core + 630
        0x0000129c:    200a        .       MOVS     r0,#0xa
        0x0000129e:    2100        .!      MOVS     r1,#0
        0x000012a0:    9004        ..      STR      r0,[sp,#0x10]
        0x000012a2:    9105        ..      STR      r1,[sp,#0x14]
        0x000012a4:    0260        `.      LSLS     r0,r4,#9
        0x000012a6:    0f41        A.      LSRS     r1,r0,#29
        0x000012a8:    2902        .)      CMP      r1,#2
        0x000012aa:    d005        ..      BEQ      0x12b8 ; _printf_core + 552
        0x000012ac:    cf01        ..      LDM      r7!,{r0}
        0x000012ae:    17c2        ..      ASRS     r2,r0,#31
        0x000012b0:    4694        .F      MOV      r12,r2
        0x000012b2:    2903        .)      CMP      r1,#3
        0x000012b4:    d005        ..      BEQ      0x12c2 ; _printf_core + 562
        0x000012b6:    e007        ..      B        0x12c8 ; _printf_core + 568
        0x000012b8:    1dff        ..      ADDS     r7,r7,#7
        0x000012ba:    08ff        ..      LSRS     r7,r7,#3
        0x000012bc:    00ff        ..      LSLS     r7,r7,#3
        0x000012be:    cf03        ..      LDM      r7!,{r0,r1}
        0x000012c0:    e006        ..      B        0x12d0 ; _printf_core + 576
        0x000012c2:    b200        ..      SXTH     r0,r0
        0x000012c4:    17c2        ..      ASRS     r2,r0,#31
        0x000012c6:    4694        .F      MOV      r12,r2
        0x000012c8:    2904        .)      CMP      r1,#4
        0x000012ca:    d102        ..      BNE      0x12d2 ; _printf_core + 578
        0x000012cc:    b240        @.      SXTB     r0,r0
        0x000012ce:    17c1        ..      ASRS     r1,r0,#31
        0x000012d0:    468c        .F      MOV      r12,r1
        0x000012d2:    2200        ."      MOVS     r2,#0
        0x000012d4:    4661        aF      MOV      r1,r12
        0x000012d6:    4594        .E      CMP      r12,r2
        0x000012d8:    da06        ..      BGE      0x12e8 ; _printf_core + 600
        0x000012da:    460a        .F      MOV      r2,r1
        0x000012dc:    2100        .!      MOVS     r1,#0
        0x000012de:    4240        @B      RSBS     r0,r0,#0
        0x000012e0:    4191        .A      SBCS     r1,r1,r2
        0x000012e2:    468c        .F      MOV      r12,r1
        0x000012e4:    212d        -!      MOVS     r1,#0x2d
        0x000012e6:    e002        ..      B        0x12ee ; _printf_core + 606
        0x000012e8:    0521        !.      LSLS     r1,r4,#20
        0x000012ea:    d504        ..      BPL      0x12f6 ; _printf_core + 614
        0x000012ec:    212b        +!      MOVS     r1,#0x2b
        0x000012ee:    466a        jF      MOV      r2,sp
        0x000012f0:    7611        .v      STRB     r1,[r2,#0x18]
        0x000012f2:    2101        .!      MOVS     r1,#1
        0x000012f4:    e003        ..      B        0x12fe ; _printf_core + 622
        0x000012f6:    07e1        ..      LSLS     r1,r4,#31
        0x000012f8:    d001        ..      BEQ      0x12fe ; _printf_core + 622
        0x000012fa:    2120         !      MOVS     r1,#0x20
        0x000012fc:    e7f7        ..      B        0x12ee ; _printf_core + 606
        0x000012fe:    9101        ..      STR      r1,[sp,#4]
        0x00001300:    e054        T.      B        0x13ac ; _printf_core + 796
        0x00001302:    200a        .       MOVS     r0,#0xa
        0x00001304:    e00b        ..      B        0x131e ; _printf_core + 654
        0x00001306:    2010        .       MOVS     r0,#0x10
        0x00001308:    e009        ..      B        0x131e ; _printf_core + 654
        0x0000130a:    2010        .       MOVS     r0,#0x10
        0x0000130c:    9004        ..      STR      r0,[sp,#0x10]
        0x0000130e:    2100        .!      MOVS     r1,#0
        0x00001310:    2004        .       MOVS     r0,#4
        0x00001312:    4304        .C      ORRS     r4,r4,r0
        0x00001314:    2008        .       MOVS     r0,#8
        0x00001316:    9105        ..      STR      r1,[sp,#0x14]
        0x00001318:    9002        ..      STR      r0,[sp,#8]
        0x0000131a:    e003        ..      B        0x1324 ; _printf_core + 660
        0x0000131c:    2008        .       MOVS     r0,#8
        0x0000131e:    2100        .!      MOVS     r1,#0
        0x00001320:    9105        ..      STR      r1,[sp,#0x14]
        0x00001322:    9004        ..      STR      r0,[sp,#0x10]
        0x00001324:    0260        `.      LSLS     r0,r4,#9
        0x00001326:    0f41        A.      LSRS     r1,r0,#29
        0x00001328:    2902        .)      CMP      r1,#2
        0x0000132a:    d005        ..      BEQ      0x1338 ; _printf_core + 680
        0x0000132c:    cf01        ..      LDM      r7!,{r0}
        0x0000132e:    2200        ."      MOVS     r2,#0
        0x00001330:    4694        .F      MOV      r12,r2
        0x00001332:    2903        .)      CMP      r1,#3
        0x00001334:    d006        ..      BEQ      0x1344 ; _printf_core + 692
        0x00001336:    e006        ..      B        0x1346 ; _printf_core + 694
        0x00001338:    1dff        ..      ADDS     r7,r7,#7
        0x0000133a:    08ff        ..      LSRS     r7,r7,#3
        0x0000133c:    00ff        ..      LSLS     r7,r7,#3
        0x0000133e:    cf03        ..      LDM      r7!,{r0,r1}
        0x00001340:    468c        .F      MOV      r12,r1
        0x00001342:    e003        ..      B        0x134c ; _printf_core + 700
        0x00001344:    b280        ..      UXTH     r0,r0
        0x00001346:    2904        .)      CMP      r1,#4
        0x00001348:    d100        ..      BNE      0x134c ; _printf_core + 700
        0x0000134a:    b2c0        ..      UXTB     r0,r0
        0x0000134c:    2100        .!      MOVS     r1,#0
        0x0000134e:    9101        ..      STR      r1,[sp,#4]
        0x00001350:    0721        !.      LSLS     r1,r4,#28
        0x00001352:    d52b        +.      BPL      0x13ac ; _printf_core + 796
        0x00001354:    9903        ..      LDR      r1,[sp,#0xc]
        0x00001356:    2970        p)      CMP      r1,#0x70
        0x00001358:    d006        ..      BEQ      0x1368 ; _printf_core + 728
        0x0000135a:    9a04        ..      LDR      r2,[sp,#0x10]
        0x0000135c:    2110        .!      MOVS     r1,#0x10
        0x0000135e:    9b05        ..      LDR      r3,[sp,#0x14]
        0x00001360:    404a        J@      EORS     r2,r2,r1
        0x00001362:    431a        .C      ORRS     r2,r2,r3
        0x00001364:    d005        ..      BEQ      0x1372 ; _printf_core + 738
        0x00001366:    e00e        ..      B        0x1386 ; _printf_core + 758
        0x00001368:    2140        @!      MOVS     r1,#0x40
        0x0000136a:    466a        jF      MOV      r2,sp
        0x0000136c:    7611        .v      STRB     r1,[r2,#0x18]
        0x0000136e:    2101        .!      MOVS     r1,#1
        0x00001370:    e008        ..      B        0x1384 ; _printf_core + 756
        0x00001372:    4661        aF      MOV      r1,r12
        0x00001374:    4301        .C      ORRS     r1,r1,r0
        0x00001376:    d006        ..      BEQ      0x1386 ; _printf_core + 758
        0x00001378:    2130        0!      MOVS     r1,#0x30
        0x0000137a:    466a        jF      MOV      r2,sp
        0x0000137c:    7611        .v      STRB     r1,[r2,#0x18]
        0x0000137e:    9903        ..      LDR      r1,[sp,#0xc]
        0x00001380:    7651        Qv      STRB     r1,[r2,#0x19]
        0x00001382:    2102        .!      MOVS     r1,#2
        0x00001384:    9101        ..      STR      r1,[sp,#4]
        0x00001386:    9a04        ..      LDR      r2,[sp,#0x10]
        0x00001388:    2108        .!      MOVS     r1,#8
        0x0000138a:    9b05        ..      LDR      r3,[sp,#0x14]
        0x0000138c:    404a        J@      EORS     r2,r2,r1
        0x0000138e:    431a        .C      ORRS     r2,r2,r3
        0x00001390:    d10c        ..      BNE      0x13ac ; _printf_core + 796
        0x00001392:    4661        aF      MOV      r1,r12
        0x00001394:    4301        .C      ORRS     r1,r1,r0
        0x00001396:    d101        ..      BNE      0x139c ; _printf_core + 780
        0x00001398:    0761        a.      LSLS     r1,r4,#29
        0x0000139a:    d507        ..      BPL      0x13ac ; _printf_core + 796
        0x0000139c:    2130        0!      MOVS     r1,#0x30
        0x0000139e:    466a        jF      MOV      r2,sp
        0x000013a0:    7611        .v      STRB     r1,[r2,#0x18]
        0x000013a2:    2101        .!      MOVS     r1,#1
        0x000013a4:    9101        ..      STR      r1,[sp,#4]
        0x000013a6:    9902        ..      LDR      r1,[sp,#8]
        0x000013a8:    1e49        I.      SUBS     r1,r1,#1
        0x000013aa:    9102        ..      STR      r1,[sp,#8]
        0x000013ac:    9903        ..      LDR      r1,[sp,#0xc]
        0x000013ae:    2958        X)      CMP      r1,#0x58
        0x000013b0:    d004        ..      BEQ      0x13bc ; _printf_core + 812
        0x000013b2:    a137        7.      ADR      r1,{pc}+0xde ; 0x1490
        0x000013b4:    9103        ..      STR      r1,[sp,#0xc]
        0x000013b6:    a90f        ..      ADD      r1,sp,#0x3c
        0x000013b8:    910f        ..      STR      r1,[sp,#0x3c]
        0x000013ba:    e00d        ..      B        0x13d8 ; _printf_core + 840
        0x000013bc:    a139        9.      ADR      r1,{pc}+0xe8 ; 0x14a4
        0x000013be:    e7f9        ..      B        0x13b4 ; _printf_core + 804
        0x000013c0:    4661        aF      MOV      r1,r12
        0x000013c2:    9b05        ..      LDR      r3,[sp,#0x14]
        0x000013c4:    9a04        ..      LDR      r2,[sp,#0x10]
        0x000013c6:    f7fefef5    ....    BL       __aeabi_uldivmod ; 0x1b4
        0x000013ca:    9b03        ..      LDR      r3,[sp,#0xc]
        0x000013cc:    468c        .F      MOV      r12,r1
        0x000013ce:    5c9b        .\      LDRB     r3,[r3,r2]
        0x000013d0:    9a0f        ..      LDR      r2,[sp,#0x3c]
        0x000013d2:    1e52        R.      SUBS     r2,r2,#1
        0x000013d4:    920f        ..      STR      r2,[sp,#0x3c]
        0x000013d6:    7013        .p      STRB     r3,[r2,#0]
        0x000013d8:    4661        aF      MOV      r1,r12
        0x000013da:    4301        .C      ORRS     r1,r1,r0
        0x000013dc:    d1f0        ..      BNE      0x13c0 ; _printf_core + 816
        0x000013de:    980f        ..      LDR      r0,[sp,#0x3c]
        0x000013e0:    a907        ..      ADD      r1,sp,#0x1c
        0x000013e2:    1a08        ..      SUBS     r0,r1,r0
        0x000013e4:    3020         0      ADDS     r0,r0,#0x20
        0x000013e6:    9003        ..      STR      r0,[sp,#0xc]
        0x000013e8:    0760        `.      LSLS     r0,r4,#29
        0x000013ea:    d504        ..      BPL      0x13f6 ; _printf_core + 870
        0x000013ec:    2001        .       MOVS     r0,#1
        0x000013ee:    0400        ..      LSLS     r0,r0,#16
        0x000013f0:    4384        .C      BICS     r4,r4,r0
        0x000013f2:    9802        ..      LDR      r0,[sp,#8]
        0x000013f4:    e001        ..      B        0x13fa ; _printf_core + 874
        0x000013f6:    2001        .       MOVS     r0,#1
        0x000013f8:    9002        ..      STR      r0,[sp,#8]
        0x000013fa:    9903        ..      LDR      r1,[sp,#0xc]
        0x000013fc:    4288        .B      CMP      r0,r1
        0x000013fe:    dd01        ..      BLE      0x1404 ; _printf_core + 884
        0x00001400:    1a40        @.      SUBS     r0,r0,r1
        0x00001402:    e000        ..      B        0x1406 ; _printf_core + 886
        0x00001404:    2000        .       MOVS     r0,#0
        0x00001406:    1841        A.      ADDS     r1,r0,r1
        0x00001408:    9002        ..      STR      r0,[sp,#8]
        0x0000140a:    9801        ..      LDR      r0,[sp,#4]
        0x0000140c:    1809        ..      ADDS     r1,r1,r0
        0x0000140e:    9800        ..      LDR      r0,[sp,#0]
        0x00001410:    1a40        @.      SUBS     r0,r0,r1
        0x00001412:    9000        ..      STR      r0,[sp,#0]
        0x00001414:    03e0        ..      LSLS     r0,r4,#15
        0x00001416:    d406        ..      BMI      0x1426 ; _printf_core + 918
        0x00001418:    4621        !F      MOV      r1,r4
        0x0000141a:    9b14        ..      LDR      r3,[sp,#0x50]
        0x0000141c:    9a13        ..      LDR      r2,[sp,#0x4c]
        0x0000141e:    9800        ..      LDR      r0,[sp,#0]
        0x00001420:    f000f85a    ..Z.    BL       _printf_pre_padding ; 0x14d8
        0x00001424:    1986        ..      ADDS     r6,r0,r6
        0x00001426:    2000        .       MOVS     r0,#0
        0x00001428:    9004        ..      STR      r0,[sp,#0x10]
        0x0000142a:    e008        ..      B        0x143e ; _printf_core + 942
        0x0000142c:    a906        ..      ADD      r1,sp,#0x18
        0x0000142e:    5c08        .\      LDRB     r0,[r1,r0]
        0x00001430:    9a14        ..      LDR      r2,[sp,#0x50]
        0x00001432:    9913        ..      LDR      r1,[sp,#0x4c]
        0x00001434:    4790        .G      BLX      r2
        0x00001436:    9804        ..      LDR      r0,[sp,#0x10]
        0x00001438:    1c40        @.      ADDS     r0,r0,#1
        0x0000143a:    1c76        v.      ADDS     r6,r6,#1
        0x0000143c:    9004        ..      STR      r0,[sp,#0x10]
        0x0000143e:    9901        ..      LDR      r1,[sp,#4]
        0x00001440:    4288        .B      CMP      r0,r1
        0x00001442:    dbf3        ..      BLT      0x142c ; _printf_core + 924
        0x00001444:    03e0        ..      LSLS     r0,r4,#15
        0x00001446:    d50c        ..      BPL      0x1462 ; _printf_core + 978
        0x00001448:    4621        !F      MOV      r1,r4
        0x0000144a:    9b14        ..      LDR      r3,[sp,#0x50]
        0x0000144c:    9a13        ..      LDR      r2,[sp,#0x4c]
        0x0000144e:    9800        ..      LDR      r0,[sp,#0]
        0x00001450:    f000f842    ..B.    BL       _printf_pre_padding ; 0x14d8
        0x00001454:    1986        ..      ADDS     r6,r0,r6
        0x00001456:    e004        ..      B        0x1462 ; _printf_core + 978
        0x00001458:    9a14        ..      LDR      r2,[sp,#0x50]
        0x0000145a:    2030        0       MOVS     r0,#0x30
        0x0000145c:    9913        ..      LDR      r1,[sp,#0x4c]
        0x0000145e:    4790        .G      BLX      r2
        0x00001460:    1c76        v.      ADDS     r6,r6,#1
        0x00001462:    9902        ..      LDR      r1,[sp,#8]
        0x00001464:    1e48        H.      SUBS     r0,r1,#1
        0x00001466:    9002        ..      STR      r0,[sp,#8]
        0x00001468:    2900        .)      CMP      r1,#0
        0x0000146a:    dcf5        ..      BGT      0x1458 ; _printf_core + 968
        0x0000146c:    e008        ..      B        0x1480 ; _printf_core + 1008
        0x0000146e:    980f        ..      LDR      r0,[sp,#0x3c]
        0x00001470:    990f        ..      LDR      r1,[sp,#0x3c]
        0x00001472:    7800        .x      LDRB     r0,[r0,#0]
        0x00001474:    1c49        I.      ADDS     r1,r1,#1
        0x00001476:    910f        ..      STR      r1,[sp,#0x3c]
        0x00001478:    9a14        ..      LDR      r2,[sp,#0x50]
        0x0000147a:    9913        ..      LDR      r1,[sp,#0x4c]
        0x0000147c:    4790        .G      BLX      r2
        0x0000147e:    1c76        v.      ADDS     r6,r6,#1
        0x00001480:    9903        ..      LDR      r1,[sp,#0xc]
        0x00001482:    1e48        H.      SUBS     r0,r1,#1
        0x00001484:    9003        ..      STR      r0,[sp,#0xc]
        0x00001486:    2900        .)      CMP      r1,#0
        0x00001488:    dcf1        ..      BGT      0x146e ; _printf_core + 990
        0x0000148a:    e6fb        ..      B        0x1284 ; _printf_core + 500
    $d
        0x0000148c:    00012809    .(..    DCD    75785
        0x00001490:    33323130    0123    DCD    858927408
        0x00001494:    37363534    4567    DCD    926299444
        0x00001498:    62613938    89ab    DCD    1650538808
        0x0000149c:    66656463    cdef    DCD    1717920867
        0x000014a0:    00000000    ....    DCD    0
        0x000014a4:    33323130    0123    DCD    858927408
        0x000014a8:    37363534    4567    DCD    926299444
        0x000014ac:    42413938    89AB    DCD    1111570744
        0x000014b0:    46454443    CDEF    DCD    1178944579
        0x000014b4:    00000000    ....    DCD    0
    $t
    i._printf_post_padding
    _printf_post_padding
        0x000014b8:    b5f8        ..      PUSH     {r3-r7,lr}
        0x000014ba:    4604        .F      MOV      r4,r0
        0x000014bc:    2500        .%      MOVS     r5,#0
        0x000014be:    461e        .F      MOV      r6,r3
        0x000014c0:    4617        .F      MOV      r7,r2
        0x000014c2:    0488        ..      LSLS     r0,r1,#18
        0x000014c4:    d404        ..      BMI      0x14d0 ; _printf_post_padding + 24
        0x000014c6:    e005        ..      B        0x14d4 ; _printf_post_padding + 28
        0x000014c8:    4639        9F      MOV      r1,r7
        0x000014ca:    2020                MOVS     r0,#0x20
        0x000014cc:    47b0        .G      BLX      r6
        0x000014ce:    1c6d        m.      ADDS     r5,r5,#1
        0x000014d0:    1e64        d.      SUBS     r4,r4,#1
        0x000014d2:    d5f9        ..      BPL      0x14c8 ; _printf_post_padding + 16
        0x000014d4:    4628        (F      MOV      r0,r5
        0x000014d6:    bdf8        ..      POP      {r3-r7,pc}
    i._printf_pre_padding
    _printf_pre_padding
        0x000014d8:    b5ff        ..      PUSH     {r0-r7,lr}
        0x000014da:    4604        .F      MOV      r4,r0
        0x000014dc:    2500        .%      MOVS     r5,#0
        0x000014de:    b081        ..      SUB      sp,sp,#4
        0x000014e0:    461e        .F      MOV      r6,r3
        0x000014e2:    03c8        ..      LSLS     r0,r1,#15
        0x000014e4:    d501        ..      BPL      0x14ea ; _printf_pre_padding + 18
        0x000014e6:    2730        0'      MOVS     r7,#0x30
        0x000014e8:    e000        ..      B        0x14ec ; _printf_pre_padding + 20
        0x000014ea:    2720         '      MOVS     r7,#0x20
        0x000014ec:    0488        ..      LSLS     r0,r1,#18
        0x000014ee:    d504        ..      BPL      0x14fa ; _printf_pre_padding + 34
        0x000014f0:    e005        ..      B        0x14fe ; _printf_pre_padding + 38
        0x000014f2:    4638        8F      MOV      r0,r7
        0x000014f4:    9903        ..      LDR      r1,[sp,#0xc]
        0x000014f6:    47b0        .G      BLX      r6
        0x000014f8:    1c6d        m.      ADDS     r5,r5,#1
        0x000014fa:    1e64        d.      SUBS     r4,r4,#1
        0x000014fc:    d5f9        ..      BPL      0x14f2 ; _printf_pre_padding + 26
        0x000014fe:    4628        (F      MOV      r0,r5
        0x00001500:    b005        ..      ADD      sp,sp,#0x14
        0x00001502:    bdf0        ..      POP      {r4-r7,pc}
    i._stripEffect_Rainbow
    _stripEffect_Rainbow
        0x00001504:    b5f7        ..      PUSH     {r0-r2,r4-r7,lr}
        0x00001506:    4a1f        .J      LDR      r2,[pc,#124] ; [0x1584] = 0x2000002c
        0x00001508:    4613        .F      MOV      r3,r2
        0x0000150a:    7957        Wy      LDRB     r7,[r2,#5]
        0x0000150c:    78de        .x      LDRB     r6,[r3,#3]
        0x0000150e:    789d        .x      LDRB     r5,[r3,#2]
        0x00001510:    791c        .y      LDRB     r4,[r3,#4]
        0x00001512:    003b        ;.      MOVS     r3,r7
        0x00001514:    f7fffda0    ....    BL       __ARM_common_switch8 ; 0x1058
    $d
        0x00001518:    120b0406    ....    DCD    302711814
        0x0000151c:    2d272019    . '-    DCD    757538841
    $t
        0x00001520:    1c76        v.      ADDS     r6,r6,#1
        0x00001522:    b2f3        ..      UXTB     r3,r6
        0x00001524:    70d3        .p      STRB     r3,[r2,#3]
        0x00001526:    2bff        .+      CMP      r3,#0xff
        0x00001528:    d123        #.      BNE      0x1572 ; _stripEffect_Rainbow + 110
        0x0000152a:    2301        .#      MOVS     r3,#1
        0x0000152c:    e020         .      B        0x1570 ; _stripEffect_Rainbow + 108
        0x0000152e:    1e6d        m.      SUBS     r5,r5,#1
        0x00001530:    062b        +.      LSLS     r3,r5,#24
        0x00001532:    0e1b        ..      LSRS     r3,r3,#24
        0x00001534:    7093        .p      STRB     r3,[r2,#2]
        0x00001536:    d11c        ..      BNE      0x1572 ; _stripEffect_Rainbow + 110
        0x00001538:    2302        .#      MOVS     r3,#2
        0x0000153a:    e019        ..      B        0x1570 ; _stripEffect_Rainbow + 108
        0x0000153c:    1c64        d.      ADDS     r4,r4,#1
        0x0000153e:    b2e3        ..      UXTB     r3,r4
        0x00001540:    7113        .q      STRB     r3,[r2,#4]
        0x00001542:    2bff        .+      CMP      r3,#0xff
        0x00001544:    d115        ..      BNE      0x1572 ; _stripEffect_Rainbow + 110
        0x00001546:    2303        .#      MOVS     r3,#3
        0x00001548:    e012        ..      B        0x1570 ; _stripEffect_Rainbow + 108
        0x0000154a:    1e76        v.      SUBS     r6,r6,#1
        0x0000154c:    0633        3.      LSLS     r3,r6,#24
        0x0000154e:    0e1b        ..      LSRS     r3,r3,#24
        0x00001550:    70d3        .p      STRB     r3,[r2,#3]
        0x00001552:    d10e        ..      BNE      0x1572 ; _stripEffect_Rainbow + 110
        0x00001554:    2304        .#      MOVS     r3,#4
        0x00001556:    e00b        ..      B        0x1570 ; _stripEffect_Rainbow + 108
        0x00001558:    1c6d        m.      ADDS     r5,r5,#1
        0x0000155a:    b2eb        ..      UXTB     r3,r5
        0x0000155c:    7093        .p      STRB     r3,[r2,#2]
        0x0000155e:    2bff        .+      CMP      r3,#0xff
        0x00001560:    d107        ..      BNE      0x1572 ; _stripEffect_Rainbow + 110
        0x00001562:    2305        .#      MOVS     r3,#5
        0x00001564:    e004        ..      B        0x1570 ; _stripEffect_Rainbow + 108
        0x00001566:    1e64        d.      SUBS     r4,r4,#1
        0x00001568:    0623        #.      LSLS     r3,r4,#24
        0x0000156a:    0e1b        ..      LSRS     r3,r3,#24
        0x0000156c:    7113        .q      STRB     r3,[r2,#4]
        0x0000156e:    d100        ..      BNE      0x1572 ; _stripEffect_Rainbow + 110
        0x00001570:    7153        Sq      STRB     r3,[r2,#5]
        0x00001572:    78d3        .x      LDRB     r3,[r2,#3]
        0x00001574:    700b        .p      STRB     r3,[r1,#0]
        0x00001576:    7891        .x      LDRB     r1,[r2,#2]
        0x00001578:    7001        .p      STRB     r1,[r0,#0]
        0x0000157a:    9802        ..      LDR      r0,[sp,#8]
        0x0000157c:    7911        .y      LDRB     r1,[r2,#4]
        0x0000157e:    7001        .p      STRB     r1,[r0,#0]
        0x00001580:    bdfe        ..      POP      {r1-r7,pc}
    $d
        0x00001582:    0000        ..      DCW    0
        0x00001584:    2000002c    ,..     DCD    536870956
    $t
    i._stripEffect_Wheel
    _stripEffect_Wheel
        0x00001588:    b570        p.      PUSH     {r4-r6,lr}
        0x0000158a:    24ff        .$      MOVS     r4,#0xff
        0x0000158c:    1a20         .      SUBS     r0,r4,r0
        0x0000158e:    2500        .%      MOVS     r5,#0
        0x00001590:    2855        U(      CMP      r0,#0x55
        0x00001592:    d205        ..      BCS      0x15a0 ; _stripEffect_Wheel + 24
        0x00001594:    7015        .p      STRB     r5,[r2,#0]
        0x00001596:    0042        B.      LSLS     r2,r0,#1
        0x00001598:    1880        ..      ADDS     r0,r0,r2
        0x0000159a:    1a22        ".      SUBS     r2,r4,r0
        0x0000159c:    700a        .p      STRB     r2,[r1,#0]
        0x0000159e:    e007        ..      B        0x15b0 ; _stripEffect_Wheel + 40
        0x000015a0:    28aa        .(      CMP      r0,#0xaa
        0x000015a2:    d207        ..      BCS      0x15b4 ; _stripEffect_Wheel + 44
        0x000015a4:    3855        U8      SUBS     r0,r0,#0x55
        0x000015a6:    0046        F.      LSLS     r6,r0,#1
        0x000015a8:    1980        ..      ADDS     r0,r0,r6
        0x000015aa:    7010        .p      STRB     r0,[r2,#0]
        0x000015ac:    700d        .p      STRB     r5,[r1,#0]
        0x000015ae:    1a20         .      SUBS     r0,r4,r0
        0x000015b0:    7018        .p      STRB     r0,[r3,#0]
        0x000015b2:    e006        ..      B        0x15c2 ; _stripEffect_Wheel + 58
        0x000015b4:    38aa        .8      SUBS     r0,r0,#0xaa
        0x000015b6:    0046        F.      LSLS     r6,r0,#1
        0x000015b8:    1980        ..      ADDS     r0,r0,r6
        0x000015ba:    1a24        $.      SUBS     r4,r4,r0
        0x000015bc:    7014        .p      STRB     r4,[r2,#0]
        0x000015be:    7008        .p      STRB     r0,[r1,#0]
        0x000015c0:    701d        .p      STRB     r5,[r3,#0]
        0x000015c2:    2000        .       MOVS     r0,#0
        0x000015c4:    bd70        p.      POP      {r4-r6,pc}
        0x000015c6:    0000        ..      MOVS     r0,r0
    i.delay_ms
    delay_ms
        0x000015c8:    217d        }!      MOVS     r1,#0x7d
        0x000015ca:    00c9        ..      LSLS     r1,r1,#3
        0x000015cc:    b510        ..      PUSH     {r4,lr}
        0x000015ce:    4341        AC      MULS     r1,r0,r1
        0x000015d0:    4801        .H      LDR      r0,[pc,#4] ; [0x15d8] = 0x40010000
        0x000015d2:    f7fffb5b    ..[.    BL       TIMER_Delay ; 0xc8c
        0x000015d6:    bd10        ..      POP      {r4,pc}
    $d
        0x000015d8:    40010000    ...@    DCD    1073807360
    $t
    i.fputc
    fputc
        0x000015dc:    b500        ..      PUSH     {lr}
        0x000015de:    4603        .F      MOV      r3,r0
        0x000015e0:    f7fffa0a    ....    BL       SendChar_ToUART ; 0x9f8
        0x000015e4:    4618        .F      MOV      r0,r3
        0x000015e6:    bd00        ..      POP      {pc}
    i.getAllColors
    getAllColors
        0x000015e8:    b5f1        ..      PUSH     {r0,r4-r7,lr}
        0x000015ea:    2500        .%      MOVS     r5,#0
        0x000015ec:    0068        h.      LSLS     r0,r5,#1
        0x000015ee:    182f        /.      ADDS     r7,r5,r0
        0x000015f0:    480c        .H      LDR      r0,[pc,#48] ; [0x1624] = 0x1e20
        0x000015f2:    2400        .$      MOVS     r4,#0
        0x000015f4:    183e        >.      ADDS     r6,r7,r0
        0x000015f6:    480b        .H      LDR      r0,[pc,#44] ; [0x1624] = 0x1e20
        0x000015f8:    78b3        .x      LDRB     r3,[r6,#2]
        0x000015fa:    5dc1        .]      LDRB     r1,[r0,r7]
        0x000015fc:    7872        rx      LDRB     r2,[r6,#1]
        0x000015fe:    4620         F      MOV      r0,r4
        0x00001600:    f000fb50    ..P.    BL       setLED_Color ; 0x1ca4
        0x00001604:    1c64        d.      ADDS     r4,r4,#1
        0x00001606:    b2e4        ..      UXTB     r4,r4
        0x00001608:    2c12        .,      CMP      r4,#0x12
        0x0000160a:    d3f4        ..      BCC      0x15f6 ; getAllColors + 14
        0x0000160c:    2036        6       MOVS     r0,#0x36
        0x0000160e:    f000fb85    ....    BL       setLED_Display ; 0x1d1c
        0x00001612:    9800        ..      LDR      r0,[sp,#0]
        0x00001614:    f7ffffd8    ....    BL       delay_ms ; 0x15c8
        0x00001618:    1c6d        m.      ADDS     r5,r5,#1
        0x0000161a:    4803        .H      LDR      r0,[pc,#12] ; [0x1628] = 0x2fe
        0x0000161c:    b2ad        ..      UXTH     r5,r5
        0x0000161e:    4285        .B      CMP      r5,r0
        0x00001620:    d3e4        ..      BCC      0x15ec ; getAllColors + 4
        0x00001622:    bdf8        ..      POP      {r3-r7,pc}
    $d
        0x00001624:    00001e20     ...    DCD    7712
        0x00001628:    000002fe    ....    DCD    766
    $t
    i.getAlternateColors
    getAlternateColors
        0x0000162c:    b5ff        ..      PUSH     {r0-r7,lr}
        0x0000162e:    b083        ..      SUB      sp,sp,#0xc
        0x00001630:    980d        ..      LDR      r0,[sp,#0x34]
        0x00001632:    4617        .F      MOV      r7,r2
        0x00001634:    461e        .F      MOV      r6,r3
        0x00001636:    2400        .$      MOVS     r4,#0
        0x00001638:    1bc0        ..      SUBS     r0,r0,r7
        0x0000163a:    9d0e        ..      LDR      r5,[sp,#0x38]
        0x0000163c:    9904        ..      LDR      r1,[sp,#0x10]
        0x0000163e:    f7fefd93    ....    BL       __aeabi_idiv ; 0x168
        0x00001642:    9001        ..      STR      r0,[sp,#4]
        0x00001644:    1ba8        ..      SUBS     r0,r5,r6
        0x00001646:    9904        ..      LDR      r1,[sp,#0x10]
        0x00001648:    f7fefd8e    ....    BL       __aeabi_idiv ; 0x168
        0x0000164c:    9000        ..      STR      r0,[sp,#0]
        0x0000164e:    990c        ..      LDR      r1,[sp,#0x30]
        0x00001650:    980f        ..      LDR      r0,[sp,#0x3c]
        0x00001652:    1a40        @.      SUBS     r0,r0,r1
        0x00001654:    9904        ..      LDR      r1,[sp,#0x10]
        0x00001656:    f7fefd87    ....    BL       __aeabi_idiv ; 0x168
        0x0000165a:    4605        .F      MOV      r5,r0
        0x0000165c:    e019        ..      B        0x1692 ; getAlternateColors + 102
        0x0000165e:    4620         F      MOV      r0,r4
        0x00001660:    990c        ..      LDR      r1,[sp,#0x30]
        0x00001662:    4368        hC      MULS     r0,r5,r0
        0x00001664:    1840        @.      ADDS     r0,r0,r1
        0x00001666:    b2c2        ..      UXTB     r2,r0
        0x00001668:    9800        ..      LDR      r0,[sp,#0]
        0x0000166a:    4360        `C      MULS     r0,r4,r0
        0x0000166c:    1980        ..      ADDS     r0,r0,r6
        0x0000166e:    b2c1        ..      UXTB     r1,r0
        0x00001670:    9801        ..      LDR      r0,[sp,#4]
        0x00001672:    4360        `C      MULS     r0,r4,r0
        0x00001674:    19c0        ..      ADDS     r0,r0,r7
        0x00001676:    b2c0        ..      UXTB     r0,r0
        0x00001678:    f000fb3c    ..<.    BL       setLED_ColorWipe ; 0x1cf4
        0x0000167c:    9904        ..      LDR      r1,[sp,#0x10]
        0x0000167e:    9803        ..      LDR      r0,[sp,#0xc]
        0x00001680:    f7fefd5c    ..\.    BL       __aeabi_uidiv ; 0x13c
        0x00001684:    4601        .F      MOV      r1,r0
        0x00001686:    1e40        @.      SUBS     r0,r0,#1
        0x00001688:    b280        ..      UXTH     r0,r0
        0x0000168a:    2900        .)      CMP      r1,#0
        0x0000168c:    d1fa        ..      BNE      0x1684 ; getAlternateColors + 88
        0x0000168e:    1c64        d.      ADDS     r4,r4,#1
        0x00001690:    b2a4        ..      UXTH     r4,r4
        0x00001692:    9804        ..      LDR      r0,[sp,#0x10]
        0x00001694:    4284        .B      CMP      r4,r0
        0x00001696:    d3e2        ..      BCC      0x165e ; getAlternateColors + 50
        0x00001698:    1e40        @.      SUBS     r0,r0,#1
        0x0000169a:    b284        ..      UXTH     r4,r0
        0x0000169c:    e019        ..      B        0x16d2 ; getAlternateColors + 166
        0x0000169e:    4620         F      MOV      r0,r4
        0x000016a0:    990c        ..      LDR      r1,[sp,#0x30]
        0x000016a2:    4368        hC      MULS     r0,r5,r0
        0x000016a4:    1840        @.      ADDS     r0,r0,r1
        0x000016a6:    b2c2        ..      UXTB     r2,r0
        0x000016a8:    9800        ..      LDR      r0,[sp,#0]
        0x000016aa:    4360        `C      MULS     r0,r4,r0
        0x000016ac:    1980        ..      ADDS     r0,r0,r6
        0x000016ae:    b2c1        ..      UXTB     r1,r0
        0x000016b0:    9801        ..      LDR      r0,[sp,#4]
        0x000016b2:    4360        `C      MULS     r0,r4,r0
        0x000016b4:    19c0        ..      ADDS     r0,r0,r7
        0x000016b6:    b2c0        ..      UXTB     r0,r0
        0x000016b8:    f000fb1c    ....    BL       setLED_ColorWipe ; 0x1cf4
        0x000016bc:    9904        ..      LDR      r1,[sp,#0x10]
        0x000016be:    9803        ..      LDR      r0,[sp,#0xc]
        0x000016c0:    f7fefd3c    ..<.    BL       __aeabi_uidiv ; 0x13c
        0x000016c4:    4601        .F      MOV      r1,r0
        0x000016c6:    1e40        @.      SUBS     r0,r0,#1
        0x000016c8:    b280        ..      UXTH     r0,r0
        0x000016ca:    2900        .)      CMP      r1,#0
        0x000016cc:    d1fa        ..      BNE      0x16c4 ; getAlternateColors + 152
        0x000016ce:    1e64        d.      SUBS     r4,r4,#1
        0x000016d0:    b2a4        ..      UXTH     r4,r4
        0x000016d2:    2c00        .,      CMP      r4,#0
        0x000016d4:    d1e3        ..      BNE      0x169e ; getAlternateColors + 114
        0x000016d6:    b007        ..      ADD      sp,sp,#0x1c
        0x000016d8:    bdf0        ..      POP      {r4-r7,pc}
    i.getCircularRing
    getCircularRing
        0x000016da:    b5ff        ..      PUSH     {r0-r7,lr}
        0x000016dc:    b081        ..      SUB      sp,sp,#4
        0x000016de:    461d        .F      MOV      r5,r3
        0x000016e0:    4616        .F      MOV      r6,r2
        0x000016e2:    460f        .F      MOV      r7,r1
        0x000016e4:    2400        .$      MOVS     r4,#0
        0x000016e6:    2200        ."      MOVS     r2,#0
        0x000016e8:    4611        .F      MOV      r1,r2
        0x000016ea:    4610        .F      MOV      r0,r2
        0x000016ec:    f000fb02    ....    BL       setLED_ColorWipe ; 0x1cf4
        0x000016f0:    462b        +F      MOV      r3,r5
        0x000016f2:    4632        2F      MOV      r2,r6
        0x000016f4:    4639        9F      MOV      r1,r7
        0x000016f6:    4620         F      MOV      r0,r4
        0x000016f8:    f000fad4    ....    BL       setLED_Color ; 0x1ca4
        0x000016fc:    2036        6       MOVS     r0,#0x36
        0x000016fe:    f000fb0d    ....    BL       setLED_Display ; 0x1d1c
        0x00001702:    9801        ..      LDR      r0,[sp,#4]
        0x00001704:    f7ffff60    ..`.    BL       delay_ms ; 0x15c8
        0x00001708:    1c64        d.      ADDS     r4,r4,#1
        0x0000170a:    b2e4        ..      UXTB     r4,r4
        0x0000170c:    2c12        .,      CMP      r4,#0x12
        0x0000170e:    d3ea        ..      BCC      0x16e6 ; getCircularRing + 12
        0x00001710:    b005        ..      ADD      sp,sp,#0x14
        0x00001712:    bdf0        ..      POP      {r4-r7,pc}
    i.getColorWheel
    getColorWheel
        0x00001714:    b5f1        ..      PUSH     {r0,r4-r7,lr}
        0x00001716:    2500        .%      MOVS     r5,#0
        0x00001718:    4e11        .N      LDR      r6,[pc,#68] ; [0x1760] = 0x2fe
        0x0000171a:    4f12        .O      LDR      r7,[pc,#72] ; [0x1764] = 0x1e20
        0x0000171c:    462c        ,F      MOV      r4,r5
        0x0000171e:    202a        *       MOVS     r0,#0x2a
        0x00001720:    4360        `C      MULS     r0,r4,r0
        0x00001722:    1940        @.      ADDS     r0,r0,r5
        0x00001724:    4631        1F      MOV      r1,r6
        0x00001726:    f7fefd09    ....    BL       __aeabi_uidiv ; 0x13c
        0x0000172a:    b2c8        ..      UXTB     r0,r1
        0x0000172c:    0041        A.      LSLS     r1,r0,#1
        0x0000172e:    1840        @.      ADDS     r0,r0,r1
        0x00001730:    19c1        ..      ADDS     r1,r0,r7
        0x00001732:    788b        .x      LDRB     r3,[r1,#2]
        0x00001734:    784a        Jx      LDRB     r2,[r1,#1]
        0x00001736:    5c39        9\      LDRB     r1,[r7,r0]
        0x00001738:    4620         F      MOV      r0,r4
        0x0000173a:    f000fab3    ....    BL       setLED_Color ; 0x1ca4
        0x0000173e:    2036        6       MOVS     r0,#0x36
        0x00001740:    f000faec    ....    BL       setLED_Display ; 0x1d1c
        0x00001744:    9800        ..      LDR      r0,[sp,#0]
        0x00001746:    f7ffff3f    ..?.    BL       delay_ms ; 0x15c8
        0x0000174a:    352a        *5      ADDS     r5,r5,#0x2a
        0x0000174c:    b2a8        ..      UXTH     r0,r5
        0x0000174e:    4631        1F      MOV      r1,r6
        0x00001750:    f7fefcf4    ....    BL       __aeabi_uidiv ; 0x13c
        0x00001754:    1c64        d.      ADDS     r4,r4,#1
        0x00001756:    b2e4        ..      UXTB     r4,r4
        0x00001758:    460d        .F      MOV      r5,r1
        0x0000175a:    2c12        .,      CMP      r4,#0x12
        0x0000175c:    d3df        ..      BCC      0x171e ; getColorWheel + 10
        0x0000175e:    bdf8        ..      POP      {r3-r7,pc}
    $d
        0x00001760:    000002fe    ....    DCD    766
        0x00001764:    00001e20     ...    DCD    7712
    $t
    i.getFromAToB
    getFromAToB
        0x00001768:    b5ff        ..      PUSH     {r0-r7,lr}
        0x0000176a:    b083        ..      SUB      sp,sp,#0xc
        0x0000176c:    980d        ..      LDR      r0,[sp,#0x34]
        0x0000176e:    4617        .F      MOV      r7,r2
        0x00001770:    461e        .F      MOV      r6,r3
        0x00001772:    2400        .$      MOVS     r4,#0
        0x00001774:    1bc0        ..      SUBS     r0,r0,r7
        0x00001776:    9d0e        ..      LDR      r5,[sp,#0x38]
        0x00001778:    9904        ..      LDR      r1,[sp,#0x10]
        0x0000177a:    f7fefcf5    ....    BL       __aeabi_idiv ; 0x168
        0x0000177e:    9001        ..      STR      r0,[sp,#4]
        0x00001780:    1ba8        ..      SUBS     r0,r5,r6
        0x00001782:    9904        ..      LDR      r1,[sp,#0x10]
        0x00001784:    f7fefcf0    ....    BL       __aeabi_idiv ; 0x168
        0x00001788:    9000        ..      STR      r0,[sp,#0]
        0x0000178a:    990c        ..      LDR      r1,[sp,#0x30]
        0x0000178c:    980f        ..      LDR      r0,[sp,#0x3c]
        0x0000178e:    1a40        @.      SUBS     r0,r0,r1
        0x00001790:    9904        ..      LDR      r1,[sp,#0x10]
        0x00001792:    f7fefce9    ....    BL       __aeabi_idiv ; 0x168
        0x00001796:    4605        .F      MOV      r5,r0
        0x00001798:    e019        ..      B        0x17ce ; getFromAToB + 102
        0x0000179a:    4620         F      MOV      r0,r4
        0x0000179c:    990c        ..      LDR      r1,[sp,#0x30]
        0x0000179e:    4368        hC      MULS     r0,r5,r0
        0x000017a0:    1840        @.      ADDS     r0,r0,r1
        0x000017a2:    b2c2        ..      UXTB     r2,r0
        0x000017a4:    9800        ..      LDR      r0,[sp,#0]
        0x000017a6:    4360        `C      MULS     r0,r4,r0
        0x000017a8:    1980        ..      ADDS     r0,r0,r6
        0x000017aa:    b2c1        ..      UXTB     r1,r0
        0x000017ac:    9801        ..      LDR      r0,[sp,#4]
        0x000017ae:    4360        `C      MULS     r0,r4,r0
        0x000017b0:    19c0        ..      ADDS     r0,r0,r7
        0x000017b2:    b2c0        ..      UXTB     r0,r0
        0x000017b4:    f000fa9e    ....    BL       setLED_ColorWipe ; 0x1cf4
        0x000017b8:    9904        ..      LDR      r1,[sp,#0x10]
        0x000017ba:    9803        ..      LDR      r0,[sp,#0xc]
        0x000017bc:    f7fefcbe    ....    BL       __aeabi_uidiv ; 0x13c
        0x000017c0:    4601        .F      MOV      r1,r0
        0x000017c2:    1e40        @.      SUBS     r0,r0,#1
        0x000017c4:    b280        ..      UXTH     r0,r0
        0x000017c6:    2900        .)      CMP      r1,#0
        0x000017c8:    d1fa        ..      BNE      0x17c0 ; getFromAToB + 88
        0x000017ca:    1c64        d.      ADDS     r4,r4,#1
        0x000017cc:    b2a4        ..      UXTH     r4,r4
        0x000017ce:    9804        ..      LDR      r0,[sp,#0x10]
        0x000017d0:    4284        .B      CMP      r4,r0
        0x000017d2:    d3e2        ..      BCC      0x179a ; getFromAToB + 50
        0x000017d4:    b007        ..      ADD      sp,sp,#0x1c
        0x000017d6:    bdf0        ..      POP      {r4-r7,pc}
    i.getFullEmpty
    getFullEmpty
        0x000017d8:    b5ff        ..      PUSH     {r0-r7,lr}
        0x000017da:    2400        .$      MOVS     r4,#0
        0x000017dc:    4616        .F      MOV      r6,r2
        0x000017de:    460f        .F      MOV      r7,r1
        0x000017e0:    b081        ..      SUB      sp,sp,#4
        0x000017e2:    461d        .F      MOV      r5,r3
        0x000017e4:    4622        "F      MOV      r2,r4
        0x000017e6:    4621        !F      MOV      r1,r4
        0x000017e8:    4620         F      MOV      r0,r4
        0x000017ea:    f000fa83    ....    BL       setLED_ColorWipe ; 0x1cf4
        0x000017ee:    462b        +F      MOV      r3,r5
        0x000017f0:    4632        2F      MOV      r2,r6
        0x000017f2:    4639        9F      MOV      r1,r7
        0x000017f4:    4620         F      MOV      r0,r4
        0x000017f6:    f000fa55    ..U.    BL       setLED_Color ; 0x1ca4
        0x000017fa:    2036        6       MOVS     r0,#0x36
        0x000017fc:    f000fa8e    ....    BL       setLED_Display ; 0x1d1c
        0x00001800:    9801        ..      LDR      r0,[sp,#4]
        0x00001802:    f7fffee1    ....    BL       delay_ms ; 0x15c8
        0x00001806:    1c64        d.      ADDS     r4,r4,#1
        0x00001808:    b2e4        ..      UXTB     r4,r4
        0x0000180a:    2c12        .,      CMP      r4,#0x12
        0x0000180c:    d3ef        ..      BCC      0x17ee ; getFullEmpty + 22
        0x0000180e:    2400        .$      MOVS     r4,#0
        0x00001810:    2300        .#      MOVS     r3,#0
        0x00001812:    461a        .F      MOV      r2,r3
        0x00001814:    4619        .F      MOV      r1,r3
        0x00001816:    4620         F      MOV      r0,r4
        0x00001818:    f000fa44    ..D.    BL       setLED_Color ; 0x1ca4
        0x0000181c:    2036        6       MOVS     r0,#0x36
        0x0000181e:    f000fa7d    ..}.    BL       setLED_Display ; 0x1d1c
        0x00001822:    9801        ..      LDR      r0,[sp,#4]
        0x00001824:    f7fffed0    ....    BL       delay_ms ; 0x15c8
        0x00001828:    1c64        d.      ADDS     r4,r4,#1
        0x0000182a:    b2e4        ..      UXTB     r4,r4
        0x0000182c:    2c12        .,      CMP      r4,#0x12
        0x0000182e:    d3ef        ..      BCC      0x1810 ; getFullEmpty + 56
        0x00001830:    b005        ..      ADD      sp,sp,#0x14
        0x00001832:    bdf0        ..      POP      {r4-r7,pc}
    i.getHeartBeat
    getHeartBeat
        0x00001834:    b5ff        ..      PUSH     {r0-r7,lr}
        0x00001836:    b085        ..      SUB      sp,sp,#0x14
        0x00001838:    2023        #       MOVS     r0,#0x23
        0x0000183a:    09cf        ..      LSRS     r7,r1,#7
        0x0000183c:    9000        ..      STR      r0,[sp,#0]
        0x0000183e:    01f8        ..      LSLS     r0,r7,#7
        0x00001840:    09d6        ..      LSRS     r6,r2,#7
        0x00001842:    1bc0        ..      SUBS     r0,r0,r7
        0x00001844:    b2c0        ..      UXTB     r0,r0
        0x00001846:    9003        ..      STR      r0,[sp,#0xc]
        0x00001848:    01f0        ..      LSLS     r0,r6,#7
        0x0000184a:    1b80        ..      SUBS     r0,r0,r6
        0x0000184c:    b2c0        ..      UXTB     r0,r0
        0x0000184e:    09dd        ..      LSRS     r5,r3,#7
        0x00001850:    9002        ..      STR      r0,[sp,#8]
        0x00001852:    01e8        ..      LSLS     r0,r5,#7
        0x00001854:    1b40        @.      SUBS     r0,r0,r5
        0x00001856:    b2c0        ..      UXTB     r0,r0
        0x00001858:    2200        ."      MOVS     r2,#0
        0x0000185a:    9001        ..      STR      r0,[sp,#4]
        0x0000185c:    2400        .$      MOVS     r4,#0
        0x0000185e:    4611        .F      MOV      r1,r2
        0x00001860:    4610        .F      MOV      r0,r2
        0x00001862:    f000fa47    ..G.    BL       setLED_ColorWipe ; 0x1cf4
        0x00001866:    9800        ..      LDR      r0,[sp,#0]
        0x00001868:    4601        .F      MOV      r1,r0
        0x0000186a:    310f        .1      ADDS     r1,r1,#0xf
        0x0000186c:    9805        ..      LDR      r0,[sp,#0x14]
        0x0000186e:    f7fefc65    ..e.    BL       __aeabi_uidiv ; 0x13c
        0x00001872:    9004        ..      STR      r0,[sp,#0x10]
        0x00001874:    4620         F      MOV      r0,r4
        0x00001876:    4368        hC      MULS     r0,r5,r0
        0x00001878:    b2c2        ..      UXTB     r2,r0
        0x0000187a:    4620         F      MOV      r0,r4
        0x0000187c:    4370        pC      MULS     r0,r6,r0
        0x0000187e:    b2c1        ..      UXTB     r1,r0
        0x00001880:    4620         F      MOV      r0,r4
        0x00001882:    4378        xC      MULS     r0,r7,r0
        0x00001884:    b2c0        ..      UXTB     r0,r0
        0x00001886:    f000fa35    ..5.    BL       setLED_ColorWipe ; 0x1cf4
        0x0000188a:    9804        ..      LDR      r0,[sp,#0x10]
        0x0000188c:    4601        .F      MOV      r1,r0
        0x0000188e:    1e40        @.      SUBS     r0,r0,#1
        0x00001890:    b280        ..      UXTH     r0,r0
        0x00001892:    2900        .)      CMP      r1,#0
        0x00001894:    d1fa        ..      BNE      0x188c ; getHeartBeat + 88
        0x00001896:    1c64        d.      ADDS     r4,r4,#1
        0x00001898:    b2e4        ..      UXTB     r4,r4
        0x0000189a:    2c80        .,      CMP      r4,#0x80
        0x0000189c:    d3ea        ..      BCC      0x1874 ; getHeartBeat + 64
        0x0000189e:    9900        ..      LDR      r1,[sp,#0]
        0x000018a0:    2400        .$      MOVS     r4,#0
        0x000018a2:    310a        .1      ADDS     r1,r1,#0xa
        0x000018a4:    9805        ..      LDR      r0,[sp,#0x14]
        0x000018a6:    f7fefc49    ..I.    BL       __aeabi_uidiv ; 0x13c
        0x000018aa:    9004        ..      STR      r0,[sp,#0x10]
        0x000018ac:    4620         F      MOV      r0,r4
        0x000018ae:    9901        ..      LDR      r1,[sp,#4]
        0x000018b0:    4368        hC      MULS     r0,r5,r0
        0x000018b2:    1a08        ..      SUBS     r0,r1,r0
        0x000018b4:    b2c2        ..      UXTB     r2,r0
        0x000018b6:    4620         F      MOV      r0,r4
        0x000018b8:    9902        ..      LDR      r1,[sp,#8]
        0x000018ba:    4370        pC      MULS     r0,r6,r0
        0x000018bc:    1a08        ..      SUBS     r0,r1,r0
        0x000018be:    b2c1        ..      UXTB     r1,r0
        0x000018c0:    4620         F      MOV      r0,r4
        0x000018c2:    9b03        ..      LDR      r3,[sp,#0xc]
        0x000018c4:    4378        xC      MULS     r0,r7,r0
        0x000018c6:    1a18        ..      SUBS     r0,r3,r0
        0x000018c8:    b2c0        ..      UXTB     r0,r0
        0x000018ca:    f000fa13    ....    BL       setLED_ColorWipe ; 0x1cf4
        0x000018ce:    9804        ..      LDR      r0,[sp,#0x10]
        0x000018d0:    4601        .F      MOV      r1,r0
        0x000018d2:    1e40        @.      SUBS     r0,r0,#1
        0x000018d4:    b280        ..      UXTH     r0,r0
        0x000018d6:    2900        .)      CMP      r1,#0
        0x000018d8:    d1fa        ..      BNE      0x18d0 ; getHeartBeat + 156
        0x000018da:    1c64        d.      ADDS     r4,r4,#1
        0x000018dc:    b2e4        ..      UXTB     r4,r4
        0x000018de:    2c80        .,      CMP      r4,#0x80
        0x000018e0:    d3e4        ..      BCC      0x18ac ; getHeartBeat + 120
        0x000018e2:    9900        ..      LDR      r1,[sp,#0]
        0x000018e4:    2400        .$      MOVS     r4,#0
        0x000018e6:    1d49        I.      ADDS     r1,r1,#5
        0x000018e8:    9805        ..      LDR      r0,[sp,#0x14]
        0x000018ea:    f7fefc27    ..'.    BL       __aeabi_uidiv ; 0x13c
        0x000018ee:    9004        ..      STR      r0,[sp,#0x10]
        0x000018f0:    4620         F      MOV      r0,r4
        0x000018f2:    4368        hC      MULS     r0,r5,r0
        0x000018f4:    b2c2        ..      UXTB     r2,r0
        0x000018f6:    4620         F      MOV      r0,r4
        0x000018f8:    4370        pC      MULS     r0,r6,r0
        0x000018fa:    b2c1        ..      UXTB     r1,r0
        0x000018fc:    4620         F      MOV      r0,r4
        0x000018fe:    4378        xC      MULS     r0,r7,r0
        0x00001900:    b2c0        ..      UXTB     r0,r0
        0x00001902:    f000f9f7    ....    BL       setLED_ColorWipe ; 0x1cf4
        0x00001906:    9804        ..      LDR      r0,[sp,#0x10]
        0x00001908:    4601        .F      MOV      r1,r0
        0x0000190a:    1e40        @.      SUBS     r0,r0,#1
        0x0000190c:    b280        ..      UXTH     r0,r0
        0x0000190e:    2900        .)      CMP      r1,#0
        0x00001910:    d1fa        ..      BNE      0x1908 ; getHeartBeat + 212
        0x00001912:    1c64        d.      ADDS     r4,r4,#1
        0x00001914:    b2e4        ..      UXTB     r4,r4
        0x00001916:    2c80        .,      CMP      r4,#0x80
        0x00001918:    d3ea        ..      BCC      0x18f0 ; getHeartBeat + 188
        0x0000191a:    2400        .$      MOVS     r4,#0
        0x0000191c:    9900        ..      LDR      r1,[sp,#0]
        0x0000191e:    9805        ..      LDR      r0,[sp,#0x14]
        0x00001920:    f7fefc0c    ....    BL       __aeabi_uidiv ; 0x13c
        0x00001924:    9000        ..      STR      r0,[sp,#0]
        0x00001926:    4620         F      MOV      r0,r4
        0x00001928:    9901        ..      LDR      r1,[sp,#4]
        0x0000192a:    4368        hC      MULS     r0,r5,r0
        0x0000192c:    1a08        ..      SUBS     r0,r1,r0
        0x0000192e:    b2c2        ..      UXTB     r2,r0
        0x00001930:    4620         F      MOV      r0,r4
        0x00001932:    9902        ..      LDR      r1,[sp,#8]
        0x00001934:    4370        pC      MULS     r0,r6,r0
        0x00001936:    1a08        ..      SUBS     r0,r1,r0
        0x00001938:    b2c1        ..      UXTB     r1,r0
        0x0000193a:    4620         F      MOV      r0,r4
        0x0000193c:    9b03        ..      LDR      r3,[sp,#0xc]
        0x0000193e:    4378        xC      MULS     r0,r7,r0
        0x00001940:    1a18        ..      SUBS     r0,r3,r0
        0x00001942:    b2c0        ..      UXTB     r0,r0
        0x00001944:    f000f9d6    ....    BL       setLED_ColorWipe ; 0x1cf4
        0x00001948:    9800        ..      LDR      r0,[sp,#0]
        0x0000194a:    4601        .F      MOV      r1,r0
        0x0000194c:    1e40        @.      SUBS     r0,r0,#1
        0x0000194e:    b280        ..      UXTH     r0,r0
        0x00001950:    2900        .)      CMP      r1,#0
        0x00001952:    d1fa        ..      BNE      0x194a ; getHeartBeat + 278
        0x00001954:    1c64        d.      ADDS     r4,r4,#1
        0x00001956:    b2e4        ..      UXTB     r4,r4
        0x00001958:    2c80        .,      CMP      r4,#0x80
        0x0000195a:    d3e4        ..      BCC      0x1926 ; getHeartBeat + 242
        0x0000195c:    9805        ..      LDR      r0,[sp,#0x14]
        0x0000195e:    f7fffe33    ..3.    BL       delay_ms ; 0x15c8
        0x00001962:    b009        ..      ADD      sp,sp,#0x24
        0x00001964:    bdf0        ..      POP      {r4-r7,pc}
    i.getPatternMove
    getPatternMove
        0x00001966:    b5ff        ..      PUSH     {r0-r7,lr}
        0x00001968:    b081        ..      SUB      sp,sp,#4
        0x0000196a:    460f        .F      MOV      r7,r1
        0x0000196c:    2500        .%      MOVS     r5,#0
        0x0000196e:    2012        .       MOVS     r0,#0x12
        0x00001970:    f7fefbe4    ....    BL       __aeabi_uidiv ; 0x13c
        0x00001974:    2200        ."      MOVS     r2,#0
        0x00001976:    4606        .F      MOV      r6,r0
        0x00001978:    4611        .F      MOV      r1,r2
        0x0000197a:    4610        .F      MOV      r0,r2
        0x0000197c:    f000f9ba    ....    BL       setLED_ColorWipe ; 0x1cf4
        0x00001980:    2200        ."      MOVS     r2,#0
        0x00001982:    4611        .F      MOV      r1,r2
        0x00001984:    4610        .F      MOV      r0,r2
        0x00001986:    f000f9b5    ....    BL       setLED_ColorWipe ; 0x1cf4
        0x0000198a:    2400        .$      MOVS     r4,#0
        0x0000198c:    e00a        ..      B        0x19a4 ; getPatternMove + 62
        0x0000198e:    4620         F      MOV      r0,r4
        0x00001990:    4370        pC      MULS     r0,r6,r0
        0x00001992:    1940        @.      ADDS     r0,r0,r5
        0x00001994:    b2c0        ..      UXTB     r0,r0
        0x00001996:    9b0a        ..      LDR      r3,[sp,#0x28]
        0x00001998:    9a04        ..      LDR      r2,[sp,#0x10]
        0x0000199a:    9903        ..      LDR      r1,[sp,#0xc]
        0x0000199c:    f000f982    ....    BL       setLED_Color ; 0x1ca4
        0x000019a0:    1c64        d.      ADDS     r4,r4,#1
        0x000019a2:    b2a4        ..      UXTH     r4,r4
        0x000019a4:    42bc        .B      CMP      r4,r7
        0x000019a6:    d3f2        ..      BCC      0x198e ; getPatternMove + 40
        0x000019a8:    2036        6       MOVS     r0,#0x36
        0x000019aa:    f000f9b7    ....    BL       setLED_Display ; 0x1d1c
        0x000019ae:    9801        ..      LDR      r0,[sp,#4]
        0x000019b0:    f7fffe0a    ....    BL       delay_ms ; 0x15c8
        0x000019b4:    1c6d        m.      ADDS     r5,r5,#1
        0x000019b6:    b2ed        ..      UXTB     r5,r5
        0x000019b8:    2d12        .-      CMP      r5,#0x12
        0x000019ba:    d3e1        ..      BCC      0x1980 ; getPatternMove + 26
        0x000019bc:    b005        ..      ADD      sp,sp,#0x14
        0x000019be:    bdf0        ..      POP      {r4-r7,pc}
    i.getRGBSequence
    getRGBSequence
        0x000019c0:    b5f1        ..      PUSH     {r0,r4-r7,lr}
        0x000019c2:    4921        !I      LDR      r1,[pc,#132] ; [0x1a48] = 0x2000002c
        0x000019c4:    2400        .$      MOVS     r4,#0
        0x000019c6:    79ca        .y      LDRB     r2,[r1,#7]
        0x000019c8:    4608        .F      MOV      r0,r1
        0x000019ca:    7980        .y      LDRB     r0,[r0,#6]
        0x000019cc:    2a00        .*      CMP      r2,#0
        0x000019ce:    d006        ..      BEQ      0x19de ; getRGBSequence + 30
        0x000019d0:    1c40        @.      ADDS     r0,r0,#1
        0x000019d2:    b2c0        ..      UXTB     r0,r0
        0x000019d4:    7188        .q      STRB     r0,[r1,#6]
        0x000019d6:    28ff        .(      CMP      r0,#0xff
        0x000019d8:    d108        ..      BNE      0x19ec ; getRGBSequence + 44
        0x000019da:    2000        .       MOVS     r0,#0
        0x000019dc:    e005        ..      B        0x19ea ; getRGBSequence + 42
        0x000019de:    1e40        @.      SUBS     r0,r0,#1
        0x000019e0:    0600        ..      LSLS     r0,r0,#24
        0x000019e2:    0e00        ..      LSRS     r0,r0,#24
        0x000019e4:    7188        .q      STRB     r0,[r1,#6]
        0x000019e6:    d101        ..      BNE      0x19ec ; getRGBSequence + 44
        0x000019e8:    2001        .       MOVS     r0,#1
        0x000019ea:    71c8        .q      STRB     r0,[r1,#7]
        0x000019ec:    2103        .!      MOVS     r1,#3
        0x000019ee:    1ca0        ..      ADDS     r0,r4,#2
        0x000019f0:    f7fefba4    ....    BL       __aeabi_uidiv ; 0x13c
        0x000019f4:    4814        .H      LDR      r0,[pc,#80] ; [0x1a48] = 0x2000002c
        0x000019f6:    07c9        ..      LSLS     r1,r1,#31
        0x000019f8:    7985        .y      LDRB     r5,[r0,#6]
        0x000019fa:    0fc9        ..      LSRS     r1,r1,#31
        0x000019fc:    4369        iC      MULS     r1,r5,r1
        0x000019fe:    b2cf        ..      UXTB     r7,r1
        0x00001a00:    2103        .!      MOVS     r1,#3
        0x00001a02:    1c60        `.      ADDS     r0,r4,#1
        0x00001a04:    f7fefb9a    ....    BL       __aeabi_uidiv ; 0x13c
        0x00001a08:    07c8        ..      LSLS     r0,r1,#31
        0x00001a0a:    0fc0        ..      LSRS     r0,r0,#31
        0x00001a0c:    4368        hC      MULS     r0,r5,r0
        0x00001a0e:    b2c6        ..      UXTB     r6,r0
        0x00001a10:    2103        .!      MOVS     r1,#3
        0x00001a12:    4620         F      MOV      r0,r4
        0x00001a14:    f7fefb92    ....    BL       __aeabi_uidiv ; 0x13c
        0x00001a18:    07c8        ..      LSLS     r0,r1,#31
        0x00001a1a:    0fc0        ..      LSRS     r0,r0,#31
        0x00001a1c:    4368        hC      MULS     r0,r5,r0
        0x00001a1e:    b2c1        ..      UXTB     r1,r0
        0x00001a20:    463b        ;F      MOV      r3,r7
        0x00001a22:    4632        2F      MOV      r2,r6
        0x00001a24:    4620         F      MOV      r0,r4
        0x00001a26:    f000f93d    ..=.    BL       setLED_Color ; 0x1ca4
        0x00001a2a:    2036        6       MOVS     r0,#0x36
        0x00001a2c:    f000f976    ..v.    BL       setLED_Display ; 0x1d1c
        0x00001a30:    9800        ..      LDR      r0,[sp,#0]
        0x00001a32:    4601        .F      MOV      r1,r0
        0x00001a34:    1e40        @.      SUBS     r0,r0,#1
        0x00001a36:    b280        ..      UXTH     r0,r0
        0x00001a38:    2900        .)      CMP      r1,#0
        0x00001a3a:    d1fa        ..      BNE      0x1a32 ; getRGBSequence + 114
        0x00001a3c:    1c64        d.      ADDS     r4,r4,#1
        0x00001a3e:    b2e4        ..      UXTB     r4,r4
        0x00001a40:    2c12        .,      CMP      r4,#0x12
        0x00001a42:    d3d3        ..      BCC      0x19ec ; getRGBSequence + 44
        0x00001a44:    bdf8        ..      POP      {r3-r7,pc}
    $d
        0x00001a46:    0000        ..      DCW    0
        0x00001a48:    2000002c    ,..     DCD    536870956
    $t
    i.getRainbow
    getRainbow
        0x00001a4c:    b53e        >.      PUSH     {r1-r5,lr}
        0x00001a4e:    2400        .$      MOVS     r4,#0
        0x00001a50:    4669        iF      MOV      r1,sp
        0x00001a52:    4605        .F      MOV      r5,r0
        0x00001a54:    700c        .p      STRB     r4,[r1,#0]
        0x00001a56:    466a        jF      MOV      r2,sp
        0x00001a58:    a901        ..      ADD      r1,sp,#4
        0x00001a5a:    a802        ..      ADD      r0,sp,#8
        0x00001a5c:    f7fffd52    ..R.    BL       _stripEffect_Rainbow ; 0x1504
        0x00001a60:    4668        hF      MOV      r0,sp
        0x00001a62:    7803        .x      LDRB     r3,[r0,#0]
        0x00001a64:    7902        .y      LDRB     r2,[r0,#4]
        0x00001a66:    7a01        .z      LDRB     r1,[r0,#8]
        0x00001a68:    4620         F      MOV      r0,r4
        0x00001a6a:    f000f91b    ....    BL       setLED_Color ; 0x1ca4
        0x00001a6e:    1c64        d.      ADDS     r4,r4,#1
        0x00001a70:    b2e4        ..      UXTB     r4,r4
        0x00001a72:    2c12        .,      CMP      r4,#0x12
        0x00001a74:    d3ef        ..      BCC      0x1a56 ; getRainbow + 10
        0x00001a76:    2036        6       MOVS     r0,#0x36
        0x00001a78:    f000f950    ..P.    BL       setLED_Display ; 0x1d1c
        0x00001a7c:    4628        (F      MOV      r0,r5
        0x00001a7e:    f7fffda3    ....    BL       delay_ms ; 0x15c8
        0x00001a82:    bd3e        >.      POP      {r1-r5,pc}
    i.getRainbowCycle
    getRainbowCycle
        0x00001a84:    b5fe        ..      PUSH     {r1-r7,lr}
        0x00001a86:    2500        .%      MOVS     r5,#0
        0x00001a88:    466a        jF      MOV      r2,sp
        0x00001a8a:    460f        .F      MOV      r7,r1
        0x00001a8c:    7015        .p      STRB     r5,[r2,#0]
        0x00001a8e:    0206        ..      LSLS     r6,r0,#8
        0x00001a90:    e01e        ..      B        0x1ad0 ; getRainbowCycle + 76
        0x00001a92:    2400        .$      MOVS     r4,#0
        0x00001a94:    0220         .      LSLS     r0,r4,#8
        0x00001a96:    2112        .!      MOVS     r1,#0x12
        0x00001a98:    f7fefb50    ..P.    BL       __aeabi_uidiv ; 0x13c
        0x00001a9c:    1940        @.      ADDS     r0,r0,r5
        0x00001a9e:    b2c0        ..      UXTB     r0,r0
        0x00001aa0:    466b        kF      MOV      r3,sp
        0x00001aa2:    aa01        ..      ADD      r2,sp,#4
        0x00001aa4:    a902        ..      ADD      r1,sp,#8
        0x00001aa6:    f7fffd6f    ..o.    BL       _stripEffect_Wheel ; 0x1588
        0x00001aaa:    4669        iF      MOV      r1,sp
        0x00001aac:    780b        .x      LDRB     r3,[r1,#0]
        0x00001aae:    790a        .y      LDRB     r2,[r1,#4]
        0x00001ab0:    b2e0        ..      UXTB     r0,r4
        0x00001ab2:    7a09        .z      LDRB     r1,[r1,#8]
        0x00001ab4:    f000f8f6    ....    BL       setLED_Color ; 0x1ca4
        0x00001ab8:    1c64        d.      ADDS     r4,r4,#1
        0x00001aba:    b2a4        ..      UXTH     r4,r4
        0x00001abc:    2c12        .,      CMP      r4,#0x12
        0x00001abe:    d3e9        ..      BCC      0x1a94 ; getRainbowCycle + 16
        0x00001ac0:    2036        6       MOVS     r0,#0x36
        0x00001ac2:    f000f92b    ..+.    BL       setLED_Display ; 0x1d1c
        0x00001ac6:    4638        8F      MOV      r0,r7
        0x00001ac8:    f7fffd7e    ..~.    BL       delay_ms ; 0x15c8
        0x00001acc:    1c6d        m.      ADDS     r5,r5,#1
        0x00001ace:    b2ad        ..      UXTH     r5,r5
        0x00001ad0:    42ae        .B      CMP      r6,r5
        0x00001ad2:    d8de        ..      BHI      0x1a92 ; getRainbowCycle + 14
        0x00001ad4:    bdfe        ..      POP      {r1-r7,pc}
    i.getTheaterChase
    getTheaterChase
        0x00001ad6:    b5ff        ..      PUSH     {r0-r7,lr}
        0x00001ad8:    b081        ..      SUB      sp,sp,#4
        0x00001ada:    461f        .F      MOV      r7,r3
        0x00001adc:    2600        .&      MOVS     r6,#0
        0x00001ade:    2400        .$      MOVS     r4,#0
        0x00001ae0:    2500        .%      MOVS     r5,#0
        0x00001ae2:    1928        (.      ADDS     r0,r5,r4
        0x00001ae4:    b2c0        ..      UXTB     r0,r0
        0x00001ae6:    463b        ;F      MOV      r3,r7
        0x00001ae8:    9a03        ..      LDR      r2,[sp,#0xc]
        0x00001aea:    9902        ..      LDR      r1,[sp,#8]
        0x00001aec:    f000f8da    ....    BL       setLED_Color ; 0x1ca4
        0x00001af0:    1ced        ..      ADDS     r5,r5,#3
        0x00001af2:    b2ad        ..      UXTH     r5,r5
        0x00001af4:    2d12        .-      CMP      r5,#0x12
        0x00001af6:    d3f4        ..      BCC      0x1ae2 ; getTheaterChase + 12
        0x00001af8:    2036        6       MOVS     r0,#0x36
        0x00001afa:    f000f90f    ....    BL       setLED_Display ; 0x1d1c
        0x00001afe:    9801        ..      LDR      r0,[sp,#4]
        0x00001b00:    f7fffd62    ..b.    BL       delay_ms ; 0x15c8
        0x00001b04:    2500        .%      MOVS     r5,#0
        0x00001b06:    2300        .#      MOVS     r3,#0
        0x00001b08:    1928        (.      ADDS     r0,r5,r4
        0x00001b0a:    b2c0        ..      UXTB     r0,r0
        0x00001b0c:    461a        .F      MOV      r2,r3
        0x00001b0e:    4619        .F      MOV      r1,r3
        0x00001b10:    f000f8c8    ....    BL       setLED_Color ; 0x1ca4
        0x00001b14:    1ced        ..      ADDS     r5,r5,#3
        0x00001b16:    b2ad        ..      UXTH     r5,r5
        0x00001b18:    2d12        .-      CMP      r5,#0x12
        0x00001b1a:    d3f4        ..      BCC      0x1b06 ; getTheaterChase + 48
        0x00001b1c:    1c64        d.      ADDS     r4,r4,#1
        0x00001b1e:    b2a4        ..      UXTH     r4,r4
        0x00001b20:    2c03        .,      CMP      r4,#3
        0x00001b22:    d3dd        ..      BCC      0x1ae0 ; getTheaterChase + 10
        0x00001b24:    1c76        v.      ADDS     r6,r6,#1
        0x00001b26:    b2b6        ..      UXTH     r6,r6
        0x00001b28:    2e0a        ..      CMP      r6,#0xa
        0x00001b2a:    d3d8        ..      BCC      0x1ade ; getTheaterChase + 8
        0x00001b2c:    b005        ..      ADD      sp,sp,#0x14
        0x00001b2e:    bdf0        ..      POP      {r4-r7,pc}
    i.getTheaterChaseRainbow
    getTheaterChaseRainbow
        0x00001b30:    b5fe        ..      PUSH     {r1-r7,lr}
        0x00001b32:    2600        .&      MOVS     r6,#0
        0x00001b34:    4669        iF      MOV      r1,sp
        0x00001b36:    4607        .F      MOV      r7,r0
        0x00001b38:    700e        .p      STRB     r6,[r1,#0]
        0x00001b3a:    2500        .%      MOVS     r5,#0
        0x00001b3c:    2400        .$      MOVS     r4,#0
        0x00001b3e:    19a0        ..      ADDS     r0,r4,r6
        0x00001b40:    21ff        .!      MOVS     r1,#0xff
        0x00001b42:    f7fefafb    ....    BL       __aeabi_uidiv ; 0x13c
        0x00001b46:    4608        .F      MOV      r0,r1
        0x00001b48:    466b        kF      MOV      r3,sp
        0x00001b4a:    aa01        ..      ADD      r2,sp,#4
        0x00001b4c:    a902        ..      ADD      r1,sp,#8
        0x00001b4e:    f7fffd1b    ....    BL       _stripEffect_Wheel ; 0x1588
        0x00001b52:    4669        iF      MOV      r1,sp
        0x00001b54:    1960        `.      ADDS     r0,r4,r5
        0x00001b56:    780b        .x      LDRB     r3,[r1,#0]
        0x00001b58:    790a        .y      LDRB     r2,[r1,#4]
        0x00001b5a:    b2c0        ..      UXTB     r0,r0
        0x00001b5c:    7a09        .z      LDRB     r1,[r1,#8]
        0x00001b5e:    f000f8a1    ....    BL       setLED_Color ; 0x1ca4
        0x00001b62:    1ce4        ..      ADDS     r4,r4,#3
        0x00001b64:    b2a4        ..      UXTH     r4,r4
        0x00001b66:    2c12        .,      CMP      r4,#0x12
        0x00001b68:    d3e9        ..      BCC      0x1b3e ; getTheaterChaseRainbow + 14
        0x00001b6a:    2036        6       MOVS     r0,#0x36
        0x00001b6c:    f000f8d6    ....    BL       setLED_Display ; 0x1d1c
        0x00001b70:    4638        8F      MOV      r0,r7
        0x00001b72:    f7fffd29    ..).    BL       delay_ms ; 0x15c8
        0x00001b76:    2400        .$      MOVS     r4,#0
        0x00001b78:    2300        .#      MOVS     r3,#0
        0x00001b7a:    1960        `.      ADDS     r0,r4,r5
        0x00001b7c:    b2c0        ..      UXTB     r0,r0
        0x00001b7e:    461a        .F      MOV      r2,r3
        0x00001b80:    4619        .F      MOV      r1,r3
        0x00001b82:    f000f88f    ....    BL       setLED_Color ; 0x1ca4
        0x00001b86:    1ce4        ..      ADDS     r4,r4,#3
        0x00001b88:    b2a4        ..      UXTH     r4,r4
        0x00001b8a:    2c12        .,      CMP      r4,#0x12
        0x00001b8c:    d3f4        ..      BCC      0x1b78 ; getTheaterChaseRainbow + 72
        0x00001b8e:    1c6d        m.      ADDS     r5,r5,#1
        0x00001b90:    b2ed        ..      UXTB     r5,r5
        0x00001b92:    2d03        .-      CMP      r5,#3
        0x00001b94:    d3d2        ..      BCC      0x1b3c ; getTheaterChaseRainbow + 12
        0x00001b96:    1c76        v.      ADDS     r6,r6,#1
        0x00001b98:    b2b6        ..      UXTH     r6,r6
        0x00001b9a:    2eff        ..      CMP      r6,#0xff
        0x00001b9c:    d9cd        ..      BLS      0x1b3a ; getTheaterChaseRainbow + 10
        0x00001b9e:    bdfe        ..      POP      {r1-r7,pc}
    i.main
    main
        0x00001ba0:    f7fefeac    ....    BL       SYS_Init ; 0x8fc
        0x00001ba4:    481b        .H      LDR      r0,[pc,#108] ; [0x1c14] = 0x4000010
        0x00001ba6:    f7feff19    ....    BL       SYS_ResetModule ; 0x9dc
        0x00001baa:    4c1b        .L      LDR      r4,[pc,#108] ; [0x1c18] = 0x40050000
        0x00001bac:    21e1        .!      MOVS     r1,#0xe1
        0x00001bae:    0249        I.      LSLS     r1,r1,#9
        0x00001bb0:    4620         F      MOV      r0,r4
        0x00001bb2:    f7fff989    ....    BL       UART_Open ; 0xec8
        0x00001bb6:    2111        .!      MOVS     r1,#0x11
        0x00001bb8:    4620         F      MOV      r0,r4
        0x00001bba:    f7fff96d    ..m.    BL       UART_EnableInt ; 0xe98
        0x00001bbe:    2001        .       MOVS     r0,#1
        0x00001bc0:    4916        .I      LDR      r1,[pc,#88] ; [0x1c1c] = 0xe000e100
        0x00001bc2:    0300        ..      LSLS     r0,r0,#12
        0x00001bc4:    6008        .`      STR      r0,[r1,#0]
        0x00001bc6:    f7fefc45    ..E.    BL       CLK_GetCPUFreq ; 0x454
        0x00001bca:    4601        .F      MOV      r1,r0
        0x00001bcc:    a014        ..      ADR      r0,{pc}+0x54 ; 0x1c20
        0x00001bce:    f7fffa33    ..3.    BL       __0printf$8 ; 0x1038
        0x00001bd2:    f7fefc4f    ..O.    BL       CLK_GetHXTFreq ; 0x474
        0x00001bd6:    4601        .F      MOV      r1,r0
        0x00001bd8:    a018        ..      ADR      r0,{pc}+0x64 ; 0x1c3c
        0x00001bda:    f7fffa2d    ..-.    BL       __0printf$8 ; 0x1038
        0x00001bde:    f7fefc53    ..S.    BL       CLK_GetLXTFreq ; 0x488
        0x00001be2:    4601        .F      MOV      r1,r0
        0x00001be4:    a01b        ..      ADR      r0,{pc}+0x70 ; 0x1c54
        0x00001be6:    f7fffa27    ..'.    BL       __0printf$8 ; 0x1038
        0x00001bea:    f7fefc3b    ..;.    BL       CLK_GetHCLKFreq ; 0x464
        0x00001bee:    4601        .F      MOV      r1,r0
        0x00001bf0:    a01e        ..      ADR      r0,{pc}+0x7c ; 0x1c6c
        0x00001bf2:    f7fffa21    ..!.    BL       __0printf$8 ; 0x1038
        0x00001bf6:    f7fefc53    ..S.    BL       CLK_GetPCLKFreq ; 0x4a0
        0x00001bfa:    4601        .F      MOV      r1,r0
        0x00001bfc:    a022        ".      ADR      r0,{pc}+0x8c ; 0x1c88
        0x00001bfe:    f7fffa1b    ....    BL       __0printf$8 ; 0x1038
        0x00001c02:    f7fefdad    ....    BL       GPIO_Init ; 0x760
        0x00001c06:    f7fff827    ..'.    BL       TIMER1_Init ; 0xc58
        0x00001c0a:    f7fff9ef    ....    BL       WS2812C_Initial ; 0xfec
        0x00001c0e:    f7feff03    ....    BL       StateMachine ; 0xa18
        0x00001c12:    e7fc        ..      B        0x1c0e ; main + 110
    $d
        0x00001c14:    04000010    ....    DCD    67108880
        0x00001c18:    40050000    ...@    DCD    1074069504
        0x00001c1c:    e000e100    ....    DCD    3758153984
        0x00001c20:    4c430a0d    ..CL    DCD    1279461901
        0x00001c24:    65475f4b    K_Ge    DCD    1699176267
        0x00001c28:    55504374    tCPU    DCD    1431323508
        0x00001c2c:    71657246    Freq    DCD    1902473798
        0x00001c30:    25203a20     : %    DCD    622869024
        0x00001c34:    0a0d6438    8d..    DCD    168649784
        0x00001c38:    00000000    ....    DCD    0
        0x00001c3c:    5f4b4c43    CLK_    DCD    1598770243
        0x00001c40:    48746547    GetH    DCD    1215587655
        0x00001c44:    72465458    XTFr    DCD    1917211736
        0x00001c48:    3a207165    eq :    DCD    975204709
        0x00001c4c:    64382520     %8d    DCD    1681401120
        0x00001c50:    00000a0d    ....    DCD    2573
        0x00001c54:    5f4b4c43    CLK_    DCD    1598770243
        0x00001c58:    4c746547    GetL    DCD    1282696519
        0x00001c5c:    72465458    XTFr    DCD    1917211736
        0x00001c60:    3a207165    eq :    DCD    975204709
        0x00001c64:    64382520     %8d    DCD    1681401120
        0x00001c68:    00000a0d    ....    DCD    2573
        0x00001c6c:    5f4b4c43    CLK_    DCD    1598770243
        0x00001c70:    50746547    GetP    DCD    1349805383
        0x00001c74:    304b4c43    CLK0    DCD    810241091
        0x00001c78:    71657246    Freq    DCD    1902473798
        0x00001c7c:    25203a20     : %    DCD    622869024
        0x00001c80:    0a0d6438    8d..    DCD    168649784
        0x00001c84:    00000000    ....    DCD    0
        0x00001c88:    5f4b4c43    CLK_    DCD    1598770243
        0x00001c8c:    50746547    GetP    DCD    1349805383
        0x00001c90:    314b4c43    CLK1    DCD    827018307
        0x00001c94:    71657246    Freq    DCD    1902473798
        0x00001c98:    25203a20     : %    DCD    622869024
        0x00001c9c:    0a0d6438    8d..    DCD    168649784
        0x00001ca0:    00000000    ....    DCD    0
    $t
    i.setLED_Color
    setLED_Color
        0x00001ca4:    b510        ..      PUSH     {r4,lr}
        0x00001ca6:    0044        D.      LSLS     r4,r0,#1
        0x00001ca8:    1900        ..      ADDS     r0,r0,r4
        0x00001caa:    4c03        .L      LDR      r4,[pc,#12] ; [0x1cb8] = 0x20000044
        0x00001cac:    5422        "T      STRB     r2,[r4,r0]
        0x00001cae:    1900        ..      ADDS     r0,r0,r4
        0x00001cb0:    7041        Ap      STRB     r1,[r0,#1]
        0x00001cb2:    7083        .p      STRB     r3,[r0,#2]
        0x00001cb4:    bd10        ..      POP      {r4,pc}
    $d
        0x00001cb6:    0000        ..      DCW    0
        0x00001cb8:    20000044    D..     DCD    536870980
    $t
    i.setLED_ColorIdxChange
    setLED_ColorIdxChange
        0x00001cbc:    490b        .I      LDR      r1,[pc,#44] ; [0x1cec] = 0x2000002c
        0x00001cbe:    2200        ."      MOVS     r2,#0
        0x00001cc0:    784b        Kx      LDRB     r3,[r1,#1]
        0x00001cc2:    4608        .F      MOV      r0,r1
        0x00001cc4:    8940        @.      LDRH     r0,[r0,#0xa]
        0x00001cc6:    2b00        .+      CMP      r3,#0
        0x00001cc8:    d007        ..      BEQ      0x1cda ; setLED_ColorIdxChange + 30
        0x00001cca:    4b09        .K      LDR      r3,[pc,#36] ; [0x1cf0] = 0x2fd
        0x00001ccc:    4298        .B      CMP      r0,r3
        0x00001cce:    d302        ..      BCC      0x1cd6 ; setLED_ColorIdxChange + 26
        0x00001cd0:    704a        Jp      STRB     r2,[r1,#1]
        0x00001cd2:    814b        K.      STRH     r3,[r1,#0xa]
        0x00001cd4:    4770        pG      BX       lr
        0x00001cd6:    1c40        @.      ADDS     r0,r0,#1
        0x00001cd8:    e002        ..      B        0x1ce0 ; setLED_ColorIdxChange + 36
        0x00001cda:    2800        .(      CMP      r0,#0
        0x00001cdc:    d002        ..      BEQ      0x1ce4 ; setLED_ColorIdxChange + 40
        0x00001cde:    1e40        @.      SUBS     r0,r0,#1
        0x00001ce0:    8148        H.      STRH     r0,[r1,#0xa]
        0x00001ce2:    4770        pG      BX       lr
        0x00001ce4:    2001        .       MOVS     r0,#1
        0x00001ce6:    7048        Hp      STRB     r0,[r1,#1]
        0x00001ce8:    814a        J.      STRH     r2,[r1,#0xa]
        0x00001cea:    4770        pG      BX       lr
    $d
        0x00001cec:    2000002c    ,..     DCD    536870956
        0x00001cf0:    000002fd    ....    DCD    765
    $t
    i.setLED_ColorWipe
    setLED_ColorWipe
        0x00001cf4:    b5f0        ..      PUSH     {r4-r7,lr}
        0x00001cf6:    4615        .F      MOV      r5,r2
        0x00001cf8:    460e        .F      MOV      r6,r1
        0x00001cfa:    4607        .F      MOV      r7,r0
        0x00001cfc:    2400        .$      MOVS     r4,#0
        0x00001cfe:    462b        +F      MOV      r3,r5
        0x00001d00:    4632        2F      MOV      r2,r6
        0x00001d02:    4639        9F      MOV      r1,r7
        0x00001d04:    4620         F      MOV      r0,r4
        0x00001d06:    f7ffffcd    ....    BL       setLED_Color ; 0x1ca4
        0x00001d0a:    1c64        d.      ADDS     r4,r4,#1
        0x00001d0c:    b2e4        ..      UXTB     r4,r4
        0x00001d0e:    2c12        .,      CMP      r4,#0x12
        0x00001d10:    d3f5        ..      BCC      0x1cfe ; setLED_ColorWipe + 10
        0x00001d12:    2036        6       MOVS     r0,#0x36
        0x00001d14:    f000f802    ....    BL       setLED_Display ; 0x1d1c
        0x00001d18:    bdf0        ..      POP      {r4-r7,pc}
        0x00001d1a:    0000        ..      MOVS     r0,r0
    i.setLED_Display
    setLED_Display
        0x00001d1c:    b570        p.      PUSH     {r4-r6,lr}
        0x00001d1e:    2400        .$      MOVS     r4,#0
        0x00001d20:    4620         F      MOV      r0,r4
        0x00001d22:    f000f817    ....    BL       setLED_ResetPulse ; 0x1d54
        0x00001d26:    4e0a        .N      LDR      r6,[pc,#40] ; [0x1d50] = 0x20000044
        0x00001d28:    0060        `.      LSLS     r0,r4,#1
        0x00001d2a:    1825        %.      ADDS     r5,r4,r0
        0x00001d2c:    5d70        p]      LDRB     r0,[r6,r5]
        0x00001d2e:    f7fff971    ..q.    BL       WS2812C_Send_1Byte ; 0x1014
        0x00001d32:    19ad        ..      ADDS     r5,r5,r6
        0x00001d34:    7868        hx      LDRB     r0,[r5,#1]
        0x00001d36:    f7fff96d    ..m.    BL       WS2812C_Send_1Byte ; 0x1014
        0x00001d3a:    78a8        .x      LDRB     r0,[r5,#2]
        0x00001d3c:    f7fff96a    ..j.    BL       WS2812C_Send_1Byte ; 0x1014
        0x00001d40:    1c64        d.      ADDS     r4,r4,#1
        0x00001d42:    b2a4        ..      UXTH     r4,r4
        0x00001d44:    2c12        .,      CMP      r4,#0x12
        0x00001d46:    d3ef        ..      BCC      0x1d28 ; setLED_Display + 12
        0x00001d48:    2001        .       MOVS     r0,#1
        0x00001d4a:    f000f803    ....    BL       setLED_ResetPulse ; 0x1d54
        0x00001d4e:    bd70        p.      POP      {r4-r6,pc}
    $d
        0x00001d50:    20000044    D..     DCD    536870980
    $t
    i.setLED_ResetPulse
    setLED_ResetPulse
        0x00001d54:    2800        .(      CMP      r0,#0
        0x00001d56:    d007        ..      BEQ      0x1d68 ; setLED_ResetPulse + 20
        0x00001d58:    207d        }       MOVS     r0,#0x7d
        0x00001d5a:    0100        ..      LSLS     r0,r0,#4
        0x00001d5c:    4601        .F      MOV      r1,r0
        0x00001d5e:    1e40        @.      SUBS     r0,r0,#1
        0x00001d60:    b280        ..      UXTH     r0,r0
        0x00001d62:    2900        .)      CMP      r1,#0
        0x00001d64:    d1fa        ..      BNE      0x1d5c ; setLED_ResetPulse + 8
        0x00001d66:    4770        pG      BX       lr
        0x00001d68:    20ff        .       MOVS     r0,#0xff
        0x00001d6a:    3091        .0      ADDS     r0,r0,#0x91
        0x00001d6c:    4601        .F      MOV      r1,r0
        0x00001d6e:    1e40        @.      SUBS     r0,r0,#1
        0x00001d70:    b280        ..      UXTH     r0,r0
        0x00001d72:    2900        .)      CMP      r1,#0
        0x00001d74:    d1fa        ..      BNE      0x1d6c ; setLED_ResetPulse + 24
        0x00001d76:    4770        pG      BX       lr
    i.stackDump
    stackDump
        0x00001d78:    b510        ..      PUSH     {r4,lr}
        0x00001d7a:    4604        .F      MOV      r4,r0
        0x00001d7c:    6801        .h      LDR      r1,[r0,#0]
        0x00001d7e:    a010        ..      ADR      r0,{pc}+0x42 ; 0x1dc0
        0x00001d80:    f7fff95a    ..Z.    BL       __0printf$8 ; 0x1038
        0x00001d84:    a011        ..      ADR      r0,{pc}+0x48 ; 0x1dcc
        0x00001d86:    6861        ah      LDR      r1,[r4,#4]
        0x00001d88:    f7fff956    ..V.    BL       __0printf$8 ; 0x1038
        0x00001d8c:    a012        ..      ADR      r0,{pc}+0x4c ; 0x1dd8
        0x00001d8e:    68a1        .h      LDR      r1,[r4,#8]
        0x00001d90:    f7fff952    ..R.    BL       __0printf$8 ; 0x1038
        0x00001d94:    a013        ..      ADR      r0,{pc}+0x50 ; 0x1de4
        0x00001d96:    68e1        .h      LDR      r1,[r4,#0xc]
        0x00001d98:    f7fff94e    ..N.    BL       __0printf$8 ; 0x1038
        0x00001d9c:    a014        ..      ADR      r0,{pc}+0x54 ; 0x1df0
        0x00001d9e:    6921        !i      LDR      r1,[r4,#0x10]
        0x00001da0:    f7fff94a    ..J.    BL       __0printf$8 ; 0x1038
        0x00001da4:    a015        ..      ADR      r0,{pc}+0x58 ; 0x1dfc
        0x00001da6:    6961        ai      LDR      r1,[r4,#0x14]
        0x00001da8:    f7fff946    ..F.    BL       __0printf$8 ; 0x1038
        0x00001dac:    a016        ..      ADR      r0,{pc}+0x5c ; 0x1e08
        0x00001dae:    69a1        .i      LDR      r1,[r4,#0x18]
        0x00001db0:    f7fff942    ..B.    BL       __0printf$8 ; 0x1038
        0x00001db4:    a017        ..      ADR      r0,{pc}+0x60 ; 0x1e14
        0x00001db6:    69e1        .i      LDR      r1,[r4,#0x1c]
        0x00001db8:    f7fff93e    ..>.    BL       __0printf$8 ; 0x1038
        0x00001dbc:    bd10        ..      POP      {r4,pc}
    $d
        0x00001dbe:    0000        ..      DCW    0
        0x00001dc0:    20203072    r0      DCD    538980466
        0x00001dc4:    7830203d    = 0x    DCD    2016419901
        0x00001dc8:    000a7825    %x..    DCD    686117
        0x00001dcc:    20203172    r1      DCD    538980722
        0x00001dd0:    7830203d    = 0x    DCD    2016419901
        0x00001dd4:    000a7825    %x..    DCD    686117
        0x00001dd8:    20203272    r2      DCD    538980978
        0x00001ddc:    7830203d    = 0x    DCD    2016419901
        0x00001de0:    000a7825    %x..    DCD    686117
        0x00001de4:    20203372    r3      DCD    538981234
        0x00001de8:    7830203d    = 0x    DCD    2016419901
        0x00001dec:    000a7825    %x..    DCD    686117
        0x00001df0:    20323172    r12     DCD    540160370
        0x00001df4:    7830203d    = 0x    DCD    2016419901
        0x00001df8:    000a7825    %x..    DCD    686117
        0x00001dfc:    2020726c    lr      DCD    538997356
        0x00001e00:    7830203d    = 0x    DCD    2016419901
        0x00001e04:    000a7825    %x..    DCD    686117
        0x00001e08:    20206370    pc      DCD    538993520
        0x00001e0c:    7830203d    = 0x    DCD    2016419901
        0x00001e10:    000a7825    %x..    DCD    686117
        0x00001e14:    20727370    psr     DCD    544371568
        0x00001e18:    7830203d    = 0x    DCD    2016419901
        0x00001e1c:    000a7825    %x..    DCD    686117
    $d.realdata
    .constdata
    colorsFull
        0x00001e20:    fe0000ff    ....    DCD    4261413119
        0x00001e24:    02fd0001    ....    DCD    50135041
        0x00001e28:    0003fc00    ....    DCD    261120
        0x00001e2c:    fa0004fb    ....    DCD    4194305275
        0x00001e30:    06f90005    ....    DCD    116981765
        0x00001e34:    0007f800    ....    DCD    522240
        0x00001e38:    f60008f7    ....    DCD    4127197431
        0x00001e3c:    0af50009    ....    DCD    183828489
        0x00001e40:    000bf400    ....    DCD    783360
        0x00001e44:    f2000cf3    ....    DCD    4060089587
        0x00001e48:    0ef1000d    ....    DCD    250675213
        0x00001e4c:    000ff000    ....    DCD    1044480
        0x00001e50:    ee0010ef    ....    DCD    3992981743
        0x00001e54:    12ed0011    ....    DCD    317521937
        0x00001e58:    0013ec00    ....    DCD    1305600
        0x00001e5c:    ea0014eb    ....    DCD    3925873899
        0x00001e60:    16e90015    ....    DCD    384368661
        0x00001e64:    0017e800    ....    DCD    1566720
        0x00001e68:    e60018e7    ....    DCD    3858766055
        0x00001e6c:    1ae50019    ....    DCD    451215385
        0x00001e70:    001be400    ....    DCD    1827840
        0x00001e74:    e2001ce3    ....    DCD    3791658211
        0x00001e78:    1ee1001d    ....    DCD    518062109
        0x00001e7c:    001fe000    ....    DCD    2088960
        0x00001e80:    de0020df    . ..    DCD    3724550367
        0x00001e84:    22dd0021    !.."    DCD    584908833
        0x00001e88:    0023dc00    ..#.    DCD    2350080
        0x00001e8c:    da0024db    .$..    DCD    3657442523
        0x00001e90:    26d90025    %..&    DCD    651755557
        0x00001e94:    0027d800    ..'.    DCD    2611200
        0x00001e98:    d60028d7    .(..    DCD    3590334679
        0x00001e9c:    2ad50029    )..*    DCD    718602281
        0x00001ea0:    002bd400    ..+.    DCD    2872320
        0x00001ea4:    d2002cd3    .,..    DCD    3523226835
        0x00001ea8:    2ed1002d    -...    DCD    785449005
        0x00001eac:    002fd000    ../.    DCD    3133440
        0x00001eb0:    ce0030cf    .0..    DCD    3456118991
        0x00001eb4:    32cd0031    1..2    DCD    852295729
        0x00001eb8:    0033cc00    ..3.    DCD    3394560
        0x00001ebc:    ca0034cb    .4..    DCD    3389011147
        0x00001ec0:    36c90035    5..6    DCD    919142453
        0x00001ec4:    0037c800    ..7.    DCD    3655680
        0x00001ec8:    c60038c7    .8..    DCD    3321903303
        0x00001ecc:    3ac50039    9..:    DCD    985989177
        0x00001ed0:    003bc400    ..;.    DCD    3916800
        0x00001ed4:    c2003cc3    .<..    DCD    3254795459
        0x00001ed8:    3ec1003d    =..>    DCD    1052835901
        0x00001edc:    003fc000    ..?.    DCD    4177920
        0x00001ee0:    be0040bf    .@..    DCD    3187687615
        0x00001ee4:    42bd0041    A..B    DCD    1119682625
        0x00001ee8:    0043bc00    ..C.    DCD    4439040
        0x00001eec:    ba0044bb    .D..    DCD    3120579771
        0x00001ef0:    46b90045    E..F    DCD    1186529349
        0x00001ef4:    0047b800    ..G.    DCD    4700160
        0x00001ef8:    b60048b7    .H..    DCD    3053471927
        0x00001efc:    4ab50049    I..J    DCD    1253376073
        0x00001f00:    004bb400    ..K.    DCD    4961280
        0x00001f04:    b2004cb3    .L..    DCD    2986364083
        0x00001f08:    4eb1004d    M..N    DCD    1320222797
        0x00001f0c:    004fb000    ..O.    DCD    5222400
        0x00001f10:    ae0050af    .P..    DCD    2919256239
        0x00001f14:    52ad0051    Q..R    DCD    1387069521
        0x00001f18:    0053ac00    ..S.    DCD    5483520
        0x00001f1c:    aa0054ab    .T..    DCD    2852148395
        0x00001f20:    56a90055    U..V    DCD    1453916245
        0x00001f24:    0057a800    ..W.    DCD    5744640
        0x00001f28:    a60058a7    .X..    DCD    2785040551
        0x00001f2c:    5aa50059    Y..Z    DCD    1520762969
        0x00001f30:    005ba400    ..[.    DCD    6005760
        0x00001f34:    a2005ca3    .\..    DCD    2717932707
        0x00001f38:    5ea1005d    ]..^    DCD    1587609693
        0x00001f3c:    005fa000    .._.    DCD    6266880
        0x00001f40:    9e00609f    .`..    DCD    2650824863
        0x00001f44:    629d0061    a..b    DCD    1654456417
        0x00001f48:    00639c00    ..c.    DCD    6528000
        0x00001f4c:    9a00649b    .d..    DCD    2583717019
        0x00001f50:    66990065    e..f    DCD    1721303141
        0x00001f54:    00679800    ..g.    DCD    6789120
        0x00001f58:    96006897    .h..    DCD    2516609175
        0x00001f5c:    6a950069    i..j    DCD    1788149865
        0x00001f60:    006b9400    ..k.    DCD    7050240
        0x00001f64:    92006c93    .l..    DCD    2449501331
        0x00001f68:    6e91006d    m..n    DCD    1854996589
        0x00001f6c:    006f9000    ..o.    DCD    7311360
        0x00001f70:    8e00708f    .p..    DCD    2382393487
        0x00001f74:    728d0071    q..r    DCD    1921843313
        0x00001f78:    00738c00    ..s.    DCD    7572480
        0x00001f7c:    8a00748b    .t..    DCD    2315285643
        0x00001f80:    76890075    u..v    DCD    1988690037
        0x00001f84:    00778800    ..w.    DCD    7833600
        0x00001f88:    86007887    .x..    DCD    2248177799
        0x00001f8c:    7a850079    y..z    DCD    2055536761
        0x00001f90:    007b8400    ..{.    DCD    8094720
        0x00001f94:    82007c83    .|..    DCD    2181069955
        0x00001f98:    7e81007d    }..~    DCD    2122383485
        0x00001f9c:    007f8000    ....    DCD    8355840
        0x00001fa0:    7e00807f    ...~    DCD    2113962111
        0x00001fa4:    827d0081    ..}.    DCD    2189230209
        0x00001fa8:    00837c00    .|..    DCD    8616960
        0x00001fac:    7a00847b    {..z    DCD    2046854267
        0x00001fb0:    86790085    ..y.    DCD    2256076933
        0x00001fb4:    00877800    .x..    DCD    8878080
        0x00001fb8:    76008877    w..v    DCD    1979746423
        0x00001fbc:    8a750089    ..u.    DCD    2322923657
        0x00001fc0:    008b7400    .t..    DCD    9139200
        0x00001fc4:    72008c73    s..r    DCD    1912638579
        0x00001fc8:    8e71008d    ..q.    DCD    2389770381
        0x00001fcc:    008f7000    .p..    DCD    9400320
        0x00001fd0:    6e00906f    o..n    DCD    1845530735
        0x00001fd4:    926d0091    ..m.    DCD    2456617105
        0x00001fd8:    00936c00    .l..    DCD    9661440
        0x00001fdc:    6a00946b    k..j    DCD    1778422891
        0x00001fe0:    96690095    ..i.    DCD    2523463829
        0x00001fe4:    00976800    .h..    DCD    9922560
        0x00001fe8:    66009867    g..f    DCD    1711315047
        0x00001fec:    9a650099    ..e.    DCD    2590310553
        0x00001ff0:    009b6400    .d..    DCD    10183680
        0x00001ff4:    62009c63    c..b    DCD    1644207203
        0x00001ff8:    9e61009d    ..a.    DCD    2657157277
        0x00001ffc:    009f6000    .`..    DCD    10444800
        0x00002000:    5e00a05f    _..^    DCD    1577099359
        0x00002004:    a25d00a1    ..].    DCD    2724004001
        0x00002008:    00a35c00    .\..    DCD    10705920
        0x0000200c:    5a00a45b    [..Z    DCD    1509991515
        0x00002010:    a65900a5    ..Y.    DCD    2790850725
        0x00002014:    00a75800    .X..    DCD    10967040
        0x00002018:    5600a857    W..V    DCD    1442883671
        0x0000201c:    aa5500a9    ..U.    DCD    2857697449
        0x00002020:    00ab5400    .T..    DCD    11228160
        0x00002024:    5200ac53    S..R    DCD    1375775827
        0x00002028:    ae5100ad    ..Q.    DCD    2924544173
        0x0000202c:    00af5000    .P..    DCD    11489280
        0x00002030:    4e00b04f    O..N    DCD    1308667983
        0x00002034:    b24d00b1    ..M.    DCD    2991390897
        0x00002038:    00b34c00    .L..    DCD    11750400
        0x0000203c:    4a00b44b    K..J    DCD    1241560139
        0x00002040:    b64900b5    ..I.    DCD    3058237621
        0x00002044:    00b74800    .H..    DCD    12011520
        0x00002048:    4600b847    G..F    DCD    1174452295
        0x0000204c:    ba4500b9    ..E.    DCD    3125084345
        0x00002050:    00bb4400    .D..    DCD    12272640
        0x00002054:    4200bc43    C..B    DCD    1107344451
        0x00002058:    be4100bd    ..A.    DCD    3191931069
        0x0000205c:    00bf4000    .@..    DCD    12533760
        0x00002060:    3e00c03f    ?..>    DCD    1040236607
        0x00002064:    c23d00c1    ..=.    DCD    3258777793
        0x00002068:    00c33c00    .<..    DCD    12794880
        0x0000206c:    3a00c43b    ;..:    DCD    973128763
        0x00002070:    c63900c5    ..9.    DCD    3325624517
        0x00002074:    00c73800    .8..    DCD    13056000
        0x00002078:    3600c837    7..6    DCD    906020919
        0x0000207c:    ca3500c9    ..5.    DCD    3392471241
        0x00002080:    00cb3400    .4..    DCD    13317120
        0x00002084:    3200cc33    3..2    DCD    838913075
        0x00002088:    ce3100cd    ..1.    DCD    3459317965
        0x0000208c:    00cf3000    .0..    DCD    13578240
        0x00002090:    2e00d02f    /...    DCD    771805231
        0x00002094:    d22d00d1    ..-.    DCD    3526164689
        0x00002098:    00d32c00    .,..    DCD    13839360
        0x0000209c:    2a00d42b    +..*    DCD    704697387
        0x000020a0:    d62900d5    ..).    DCD    3593011413
        0x000020a4:    00d72800    .(..    DCD    14100480
        0x000020a8:    2600d827    '..&    DCD    637589543
        0x000020ac:    da2500d9    ..%.    DCD    3659858137
        0x000020b0:    00db2400    .$..    DCD    14361600
        0x000020b4:    2200dc23    #.."    DCD    570481699
        0x000020b8:    de2100dd    ..!.    DCD    3726704861
        0x000020bc:    00df2000    . ..    DCD    14622720
        0x000020c0:    1e00e01f    ....    DCD    503373855
        0x000020c4:    e21d00e1    ....    DCD    3793551585
        0x000020c8:    00e31c00    ....    DCD    14883840
        0x000020cc:    1a00e41b    ....    DCD    436266011
        0x000020d0:    e61900e5    ....    DCD    3860398309
        0x000020d4:    00e71800    ....    DCD    15144960
        0x000020d8:    1600e817    ....    DCD    369158167
        0x000020dc:    ea1500e9    ....    DCD    3927245033
        0x000020e0:    00eb1400    ....    DCD    15406080
        0x000020e4:    1200ec13    ....    DCD    302050323
        0x000020e8:    ee1100ed    ....    DCD    3994091757
        0x000020ec:    00ef1000    ....    DCD    15667200
        0x000020f0:    0e00f00f    ....    DCD    234942479
        0x000020f4:    f20d00f1    ....    DCD    4060938481
        0x000020f8:    00f30c00    ....    DCD    15928320
        0x000020fc:    0a00f40b    ....    DCD    167834635
        0x00002100:    f60900f5    ....    DCD    4127785205
        0x00002104:    00f70800    ....    DCD    16189440
        0x00002108:    0600f807    ....    DCD    100726791
        0x0000210c:    fa0500f9    ....    DCD    4194631929
        0x00002110:    00fb0400    ....    DCD    16450560
        0x00002114:    0200fc03    ....    DCD    33618947
        0x00002118:    fe0100fd    ....    DCD    4261478653
        0x0000211c:    00ff0000    ....    DCD    16711680
        0x00002120:    0001fe00    ....    DCD    130560
        0x00002124:    fc0002fd    ....    DCD    4227859197
        0x00002128:    04fb0003    ....    DCD    83558403
        0x0000212c:    0005fa00    ....    DCD    391680
        0x00002130:    f80006f9    ....    DCD    4160751353
        0x00002134:    08f70007    ....    DCD    150405127
        0x00002138:    0009f600    ....    DCD    652800
        0x0000213c:    f4000af5    ....    DCD    4093643509
        0x00002140:    0cf3000b    ....    DCD    217251851
        0x00002144:    000df200    ....    DCD    913920
        0x00002148:    f0000ef1    ....    DCD    4026535665
        0x0000214c:    10ef000f    ....    DCD    284098575
        0x00002150:    0011ee00    ....    DCD    1175040
        0x00002154:    ec0012ed    ....    DCD    3959427821
        0x00002158:    14eb0013    ....    DCD    350945299
        0x0000215c:    0015ea00    ....    DCD    1436160
        0x00002160:    e80016e9    ....    DCD    3892319977
        0x00002164:    18e70017    ....    DCD    417792023
        0x00002168:    0019e600    ....    DCD    1697280
        0x0000216c:    e4001ae5    ....    DCD    3825212133
        0x00002170:    1ce3001b    ....    DCD    484638747
        0x00002174:    001de200    ....    DCD    1958400
        0x00002178:    e0001ee1    ....    DCD    3758104289
        0x0000217c:    20df001f    ...     DCD    551485471
        0x00002180:    0021de00    ..!.    DCD    2219520
        0x00002184:    dc0022dd    ."..    DCD    3690996445
        0x00002188:    24db0023    #..$    DCD    618332195
        0x0000218c:    0025da00    ..%.    DCD    2480640
        0x00002190:    d80026d9    .&..    DCD    3623888601
        0x00002194:    28d70027    '..(    DCD    685178919
        0x00002198:    0029d600    ..).    DCD    2741760
        0x0000219c:    d4002ad5    .*..    DCD    3556780757
        0x000021a0:    2cd3002b    +..,    DCD    752025643
        0x000021a4:    002dd200    ..-.    DCD    3002880
        0x000021a8:    d0002ed1    ....    DCD    3489672913
        0x000021ac:    30cf002f    /..0    DCD    818872367
        0x000021b0:    0031ce00    ..1.    DCD    3264000
        0x000021b4:    cc0032cd    .2..    DCD    3422565069
        0x000021b8:    34cb0033    3..4    DCD    885719091
        0x000021bc:    0035ca00    ..5.    DCD    3525120
        0x000021c0:    c80036c9    .6..    DCD    3355457225
        0x000021c4:    38c70037    7..8    DCD    952565815
        0x000021c8:    0039c600    ..9.    DCD    3786240
        0x000021cc:    c4003ac5    .:..    DCD    3288349381
        0x000021d0:    3cc3003b    ;..<    DCD    1019412539
        0x000021d4:    003dc200    ..=.    DCD    4047360
        0x000021d8:    c0003ec1    .>..    DCD    3221241537
        0x000021dc:    40bf003f    ?..@    DCD    1086259263
        0x000021e0:    0041be00    ..A.    DCD    4308480
        0x000021e4:    bc0042bd    .B..    DCD    3154133693
        0x000021e8:    44bb0043    C..D    DCD    1153105987
        0x000021ec:    0045ba00    ..E.    DCD    4569600
        0x000021f0:    b80046b9    .F..    DCD    3087025849
        0x000021f4:    48b70047    G..H    DCD    1219952711
        0x000021f8:    0049b600    ..I.    DCD    4830720
        0x000021fc:    b4004ab5    .J..    DCD    3019918005
        0x00002200:    4cb3004b    K..L    DCD    1286799435
        0x00002204:    004db200    ..M.    DCD    5091840
        0x00002208:    b0004eb1    .N..    DCD    2952810161
        0x0000220c:    50af004f    O..P    DCD    1353646159
        0x00002210:    0051ae00    ..Q.    DCD    5352960
        0x00002214:    ac0052ad    .R..    DCD    2885702317
        0x00002218:    54ab0053    S..T    DCD    1420492883
        0x0000221c:    0055aa00    ..U.    DCD    5614080
        0x00002220:    a80056a9    .V..    DCD    2818594473
        0x00002224:    58a70057    W..X    DCD    1487339607
        0x00002228:    0059a600    ..Y.    DCD    5875200
        0x0000222c:    a4005aa5    .Z..    DCD    2751486629
        0x00002230:    5ca3005b    [..\    DCD    1554186331
        0x00002234:    005da200    ..].    DCD    6136320
        0x00002238:    a0005ea1    .^..    DCD    2684378785
        0x0000223c:    609f005f    _..`    DCD    1621033055
        0x00002240:    00619e00    ..a.    DCD    6397440
        0x00002244:    9c00629d    .b..    DCD    2617270941
        0x00002248:    649b0063    c..d    DCD    1687879779
        0x0000224c:    00659a00    ..e.    DCD    6658560
        0x00002250:    98006699    .f..    DCD    2550163097
        0x00002254:    68970067    g..h    DCD    1754726503
        0x00002258:    00699600    ..i.    DCD    6919680
        0x0000225c:    94006a95    .j..    DCD    2483055253
        0x00002260:    6c93006b    k..l    DCD    1821573227
        0x00002264:    006d9200    ..m.    DCD    7180800
        0x00002268:    90006e91    .n..    DCD    2415947409
        0x0000226c:    708f006f    o..p    DCD    1888419951
        0x00002270:    00718e00    ..q.    DCD    7441920
        0x00002274:    8c00728d    .r..    DCD    2348839565
        0x00002278:    748b0073    s..t    DCD    1955266675
        0x0000227c:    00758a00    ..u.    DCD    7703040
        0x00002280:    88007689    .v..    DCD    2281731721
        0x00002284:    78870077    w..x    DCD    2022113399
        0x00002288:    00798600    ..y.    DCD    7964160
        0x0000228c:    84007a85    .z..    DCD    2214623877
        0x00002290:    7c83007b    {..|    DCD    2088960123
        0x00002294:    007d8200    ..}.    DCD    8225280
        0x00002298:    80007e81    .~..    DCD    2147516033
        0x0000229c:    807f007f    ....    DCD    2155806847
        0x000022a0:    00817e00    .~..    DCD    8486400
        0x000022a4:    7c00827d    }..|    DCD    2080408189
        0x000022a8:    847b0083    ..{.    DCD    2222653571
        0x000022ac:    00857a00    .z..    DCD    8747520
        0x000022b0:    78008679    y..x    DCD    2013300345
        0x000022b4:    88770087    ..w.    DCD    2289500295
        0x000022b8:    00897600    .v..    DCD    9008640
        0x000022bc:    74008a75    u..t    DCD    1946192501
        0x000022c0:    8c73008b    ..s.    DCD    2356347019
        0x000022c4:    008d7200    .r..    DCD    9269760
        0x000022c8:    70008e71    q..p    DCD    1879084657
        0x000022cc:    906f008f    ..o.    DCD    2423193743
        0x000022d0:    00916e00    .n..    DCD    9530880
        0x000022d4:    6c00926d    m..l    DCD    1811976813
        0x000022d8:    946b0093    ..k.    DCD    2490040467
        0x000022dc:    00956a00    .j..    DCD    9792000
        0x000022e0:    68009669    i..h    DCD    1744868969
        0x000022e4:    98670097    ..g.    DCD    2556887191
        0x000022e8:    00996600    .f..    DCD    10053120
        0x000022ec:    64009a65    e..d    DCD    1677761125
        0x000022f0:    9c63009b    ..c.    DCD    2623733915
        0x000022f4:    009d6200    .b..    DCD    10314240
        0x000022f8:    60009e61    a..`    DCD    1610653281
        0x000022fc:    a05f009f    .._.    DCD    2690580639
        0x00002300:    00a15e00    .^..    DCD    10575360
        0x00002304:    5c00a25d    ]..\    DCD    1543545437
        0x00002308:    a45b00a3    ..[.    DCD    2757427363
        0x0000230c:    00a55a00    .Z..    DCD    10836480
        0x00002310:    5800a659    Y..X    DCD    1476437593
        0x00002314:    a85700a7    ..W.    DCD    2824274087
        0x00002318:    00a95600    .V..    DCD    11097600
        0x0000231c:    5400aa55    U..T    DCD    1409329749
        0x00002320:    ac5300ab    ..S.    DCD    2891120811
        0x00002324:    00ad5200    .R..    DCD    11358720
        0x00002328:    5000ae51    Q..P    DCD    1342221905
        0x0000232c:    b04f00af    ..O.    DCD    2957967535
        0x00002330:    00b14e00    .N..    DCD    11619840
        0x00002334:    4c00b24d    M..L    DCD    1275114061
        0x00002338:    b44b00b3    ..K.    DCD    3024814259
        0x0000233c:    00b54a00    .J..    DCD    11880960
        0x00002340:    4800b649    I..H    DCD    1208006217
        0x00002344:    b84700b7    ..G.    DCD    3091660983
        0x00002348:    00b94600    .F..    DCD    12142080
        0x0000234c:    4400ba45    E..D    DCD    1140898373
        0x00002350:    bc4300bb    ..C.    DCD    3158507707
        0x00002354:    00bd4200    .B..    DCD    12403200
        0x00002358:    4000be41    A..@    DCD    1073790529
        0x0000235c:    c03f00bf    ..?.    DCD    3225354431
        0x00002360:    00c13e00    .>..    DCD    12664320
        0x00002364:    3c00c23d    =..<    DCD    1006682685
        0x00002368:    c43b00c3    ..;.    DCD    3292201155
        0x0000236c:    00c53a00    .:..    DCD    12925440
        0x00002370:    3800c639    9..8    DCD    939574841
        0x00002374:    c83700c7    ..7.    DCD    3359047879
        0x00002378:    00c93600    .6..    DCD    13186560
        0x0000237c:    3400ca35    5..4    DCD    872466997
        0x00002380:    cc3300cb    ..3.    DCD    3425894603
        0x00002384:    00cd3200    .2..    DCD    13447680
        0x00002388:    3000ce31    1..0    DCD    805359153
        0x0000238c:    d02f00cf    ../.    DCD    3492741327
        0x00002390:    00d12e00    ....    DCD    13708800
        0x00002394:    2c00d22d    -..,    DCD    738251309
        0x00002398:    d42b00d3    ..+.    DCD    3559588051
        0x0000239c:    00d52a00    .*..    DCD    13969920
        0x000023a0:    2800d629    )..(    DCD    671143465
        0x000023a4:    d82700d7    ..'.    DCD    3626434775
        0x000023a8:    00d92600    .&..    DCD    14231040
        0x000023ac:    2400da25    %..$    DCD    604035621
        0x000023b0:    dc2300db    ..#.    DCD    3693281499
        0x000023b4:    00dd2200    ."..    DCD    14492160
        0x000023b8:    2000de21    !..     DCD    536927777
        0x000023bc:    e01f00df    ....    DCD    3760128223
        0x000023c0:    00e11e00    ....    DCD    14753280
        0x000023c4:    1c00e21d    ....    DCD    469819933
        0x000023c8:    e41b00e3    ....    DCD    3826974947
        0x000023cc:    00e51a00    ....    DCD    15014400
        0x000023d0:    1800e619    ....    DCD    402712089
        0x000023d4:    e81700e7    ....    DCD    3893821671
        0x000023d8:    00e91600    ....    DCD    15275520
        0x000023dc:    1400ea15    ....    DCD    335604245
        0x000023e0:    ec1300eb    ....    DCD    3960668395
        0x000023e4:    00ed1200    ....    DCD    15536640
        0x000023e8:    1000ee11    ....    DCD    268496401
        0x000023ec:    f00f00ef    ....    DCD    4027515119
        0x000023f0:    00f10e00    ....    DCD    15797760
        0x000023f4:    0c00f20d    ....    DCD    201388557
        0x000023f8:    f40b00f3    ....    DCD    4094361843
        0x000023fc:    00f50a00    ....    DCD    16058880
        0x00002400:    0800f609    ....    DCD    134280713
        0x00002404:    f80700f7    ....    DCD    4161208567
        0x00002408:    00f90600    ....    DCD    16320000
        0x0000240c:    0400fa05    ....    DCD    67172869
        0x00002410:    fc0300fb    ....    DCD    4228055291
        0x00002414:    00fd0200    ....    DCD    16581120
        0x00002418:    0000fe01    ....    DCD    65025
        0x0000241c:    fe0001ff    ....    DCD    4261413375
        0x00002420:    03fd0002    ....    DCD    66912258
        0x00002424:    0004fc00    ....    DCD    326656
        0x00002428:    fa0005fb    ....    DCD    4194305531
        0x0000242c:    07f90006    ....    DCD    133758982
        0x00002430:    0008f800    ....    DCD    587776
        0x00002434:    f60009f7    ....    DCD    4127197687
        0x00002438:    0bf5000a    ....    DCD    200605706
        0x0000243c:    000cf400    ....    DCD    848896
        0x00002440:    f2000df3    ....    DCD    4060089843
        0x00002444:    0ff1000e    ....    DCD    267452430
        0x00002448:    0010f000    ....    DCD    1110016
        0x0000244c:    ee0011ef    ....    DCD    3992981999
        0x00002450:    13ed0012    ....    DCD    334299154
        0x00002454:    0014ec00    ....    DCD    1371136
        0x00002458:    ea0015eb    ....    DCD    3925874155
        0x0000245c:    17e90016    ....    DCD    401145878
        0x00002460:    0018e800    ....    DCD    1632256
        0x00002464:    e60019e7    ....    DCD    3858766311
        0x00002468:    1be5001a    ....    DCD    467992602
        0x0000246c:    001ce400    ....    DCD    1893376
        0x00002470:    e2001de3    ....    DCD    3791658467
        0x00002474:    1fe1001e    ....    DCD    534839326
        0x00002478:    0020e000    .. .    DCD    2154496
        0x0000247c:    de0021df    .!..    DCD    3724550623
        0x00002480:    23dd0022    "..#    DCD    601686050
        0x00002484:    0024dc00    ..$.    DCD    2415616
        0x00002488:    da0025db    .%..    DCD    3657442779
        0x0000248c:    27d90026    &..'    DCD    668532774
        0x00002490:    0028d800    ..(.    DCD    2676736
        0x00002494:    d60029d7    .)..    DCD    3590334935
        0x00002498:    2bd5002a    *..+    DCD    735379498
        0x0000249c:    002cd400    ..,.    DCD    2937856
        0x000024a0:    d2002dd3    .-..    DCD    3523227091
        0x000024a4:    2fd1002e    .../    DCD    802226222
        0x000024a8:    0030d000    ..0.    DCD    3198976
        0x000024ac:    ce0031cf    .1..    DCD    3456119247
        0x000024b0:    33cd0032    2..3    DCD    869072946
        0x000024b4:    0034cc00    ..4.    DCD    3460096
        0x000024b8:    ca0035cb    .5..    DCD    3389011403
        0x000024bc:    37c90036    6..7    DCD    935919670
        0x000024c0:    0038c800    ..8.    DCD    3721216
        0x000024c4:    c60039c7    .9..    DCD    3321903559
        0x000024c8:    3bc5003a    :..;    DCD    1002766394
        0x000024cc:    003cc400    ..<.    DCD    3982336
        0x000024d0:    c2003dc3    .=..    DCD    3254795715
        0x000024d4:    3fc1003e    >..?    DCD    1069613118
        0x000024d8:    0040c000    ..@.    DCD    4243456
        0x000024dc:    be0041bf    .A..    DCD    3187687871
        0x000024e0:    43bd0042    B..C    DCD    1136459842
        0x000024e4:    0044bc00    ..D.    DCD    4504576
        0x000024e8:    ba0045bb    .E..    DCD    3120580027
        0x000024ec:    47b90046    F..G    DCD    1203306566
        0x000024f0:    0048b800    ..H.    DCD    4765696
        0x000024f4:    b60049b7    .I..    DCD    3053472183
        0x000024f8:    4bb5004a    J..K    DCD    1270153290
        0x000024fc:    004cb400    ..L.    DCD    5026816
        0x00002500:    b2004db3    .M..    DCD    2986364339
        0x00002504:    4fb1004e    N..O    DCD    1337000014
        0x00002508:    0050b000    ..P.    DCD    5287936
        0x0000250c:    ae0051af    .Q..    DCD    2919256495
        0x00002510:    53ad0052    R..S    DCD    1403846738
        0x00002514:    0054ac00    ..T.    DCD    5549056
        0x00002518:    aa0055ab    .U..    DCD    2852148651
        0x0000251c:    57a90056    V..W    DCD    1470693462
        0x00002520:    0058a800    ..X.    DCD    5810176
        0x00002524:    a60059a7    .Y..    DCD    2785040807
        0x00002528:    5ba5005a    Z..[    DCD    1537540186
        0x0000252c:    005ca400    ..\.    DCD    6071296
        0x00002530:    a2005da3    .]..    DCD    2717932963
        0x00002534:    5fa1005e    ^.._    DCD    1604386910
        0x00002538:    0060a000    ..`.    DCD    6332416
        0x0000253c:    9e00619f    .a..    DCD    2650825119
        0x00002540:    639d0062    b..c    DCD    1671233634
        0x00002544:    00649c00    ..d.    DCD    6593536
        0x00002548:    9a00659b    .e..    DCD    2583717275
        0x0000254c:    67990066    f..g    DCD    1738080358
        0x00002550:    00689800    ..h.    DCD    6854656
        0x00002554:    96006997    .i..    DCD    2516609431
        0x00002558:    6b95006a    j..k    DCD    1804927082
        0x0000255c:    006c9400    ..l.    DCD    7115776
        0x00002560:    92006d93    .m..    DCD    2449501587
        0x00002564:    6f91006e    n..o    DCD    1871773806
        0x00002568:    00709000    ..p.    DCD    7376896
        0x0000256c:    8e00718f    .q..    DCD    2382393743
        0x00002570:    738d0072    r..s    DCD    1938620530
        0x00002574:    00748c00    ..t.    DCD    7638016
        0x00002578:    8a00758b    .u..    DCD    2315285899
        0x0000257c:    77890076    v..w    DCD    2005467254
        0x00002580:    00788800    ..x.    DCD    7899136
        0x00002584:    86007987    .y..    DCD    2248178055
        0x00002588:    7b85007a    z..{    DCD    2072313978
        0x0000258c:    007c8400    ..|.    DCD    8160256
        0x00002590:    82007d83    .}..    DCD    2181070211
        0x00002594:    7f81007e    ~...    DCD    2139160702
        0x00002598:    00808000    ....    DCD    8421376
        0x0000259c:    7e00817f    ...~    DCD    2113962367
        0x000025a0:    837d0082    ..}.    DCD    2206007426
        0x000025a4:    00847c00    .|..    DCD    8682496
        0x000025a8:    7a00857b    {..z    DCD    2046854523
        0x000025ac:    87790086    ..y.    DCD    2272854150
        0x000025b0:    00887800    .x..    DCD    8943616
        0x000025b4:    76008977    w..v    DCD    1979746679
        0x000025b8:    8b75008a    ..u.    DCD    2339700874
        0x000025bc:    008c7400    .t..    DCD    9204736
        0x000025c0:    72008d73    s..r    DCD    1912638835
        0x000025c4:    8f71008e    ..q.    DCD    2406547598
        0x000025c8:    00907000    .p..    DCD    9465856
        0x000025cc:    6e00916f    o..n    DCD    1845530991
        0x000025d0:    936d0092    ..m.    DCD    2473394322
        0x000025d4:    00946c00    .l..    DCD    9726976
        0x000025d8:    6a00956b    k..j    DCD    1778423147
        0x000025dc:    97690096    ..i.    DCD    2540241046
        0x000025e0:    00986800    .h..    DCD    9988096
        0x000025e4:    66009967    g..f    DCD    1711315303
        0x000025e8:    9b65009a    ..e.    DCD    2607087770
        0x000025ec:    009c6400    .d..    DCD    10249216
        0x000025f0:    62009d63    c..b    DCD    1644207459
        0x000025f4:    9f61009e    ..a.    DCD    2673934494
        0x000025f8:    00a06000    .`..    DCD    10510336
        0x000025fc:    5e00a15f    _..^    DCD    1577099615
        0x00002600:    a35d00a2    ..].    DCD    2740781218
        0x00002604:    00a45c00    .\..    DCD    10771456
        0x00002608:    5a00a55b    [..Z    DCD    1509991771
        0x0000260c:    a75900a6    ..Y.    DCD    2807627942
        0x00002610:    00a85800    .X..    DCD    11032576
        0x00002614:    5600a957    W..V    DCD    1442883927
        0x00002618:    ab5500aa    ..U.    DCD    2874474666
        0x0000261c:    00ac5400    .T..    DCD    11293696
        0x00002620:    5200ad53    S..R    DCD    1375776083
        0x00002624:    af5100ae    ..Q.    DCD    2941321390
        0x00002628:    00b05000    .P..    DCD    11554816
        0x0000262c:    4e00b14f    O..N    DCD    1308668239
        0x00002630:    b34d00b2    ..M.    DCD    3008168114
        0x00002634:    00b44c00    .L..    DCD    11815936
        0x00002638:    4a00b54b    K..J    DCD    1241560395
        0x0000263c:    b74900b6    ..I.    DCD    3075014838
        0x00002640:    00b84800    .H..    DCD    12077056
        0x00002644:    4600b947    G..F    DCD    1174452551
        0x00002648:    bb4500ba    ..E.    DCD    3141861562
        0x0000264c:    00bc4400    .D..    DCD    12338176
        0x00002650:    4200bd43    C..B    DCD    1107344707
        0x00002654:    bf4100be    ..A.    DCD    3208708286
        0x00002658:    00c04000    .@..    DCD    12599296
        0x0000265c:    3e00c13f    ?..>    DCD    1040236863
        0x00002660:    c33d00c2    ..=.    DCD    3275555010
        0x00002664:    00c43c00    .<..    DCD    12860416
        0x00002668:    3a00c53b    ;..:    DCD    973129019
        0x0000266c:    c73900c6    ..9.    DCD    3342401734
        0x00002670:    00c83800    .8..    DCD    13121536
        0x00002674:    3600c937    7..6    DCD    906021175
        0x00002678:    cb3500ca    ..5.    DCD    3409248458
        0x0000267c:    00cc3400    .4..    DCD    13382656
        0x00002680:    3200cd33    3..2    DCD    838913331
        0x00002684:    cf3100ce    ..1.    DCD    3476095182
        0x00002688:    00d03000    .0..    DCD    13643776
        0x0000268c:    2e00d12f    /...    DCD    771805487
        0x00002690:    d32d00d2    ..-.    DCD    3542941906
        0x00002694:    00d42c00    .,..    DCD    13904896
        0x00002698:    2a00d52b    +..*    DCD    704697643
        0x0000269c:    d72900d6    ..).    DCD    3609788630
        0x000026a0:    00d82800    .(..    DCD    14166016
        0x000026a4:    2600d927    '..&    DCD    637589799
        0x000026a8:    db2500da    ..%.    DCD    3676635354
        0x000026ac:    00dc2400    .$..    DCD    14427136
        0x000026b0:    2200dd23    #.."    DCD    570481955
        0x000026b4:    df2100de    ..!.    DCD    3743482078
        0x000026b8:    00e02000    . ..    DCD    14688256
        0x000026bc:    1e00e11f    ....    DCD    503374111
        0x000026c0:    e31d00e2    ....    DCD    3810328802
        0x000026c4:    00e41c00    ....    DCD    14949376
        0x000026c8:    1a00e51b    ....    DCD    436266267
        0x000026cc:    e71900e6    ....    DCD    3877175526
        0x000026d0:    00e81800    ....    DCD    15210496
        0x000026d4:    1600e917    ....    DCD    369158423
        0x000026d8:    eb1500ea    ....    DCD    3944022250
        0x000026dc:    00ec1400    ....    DCD    15471616
        0x000026e0:    1200ed13    ....    DCD    302050579
        0x000026e4:    ef1100ee    ....    DCD    4010868974
        0x000026e8:    00f01000    ....    DCD    15732736
        0x000026ec:    0e00f10f    ....    DCD    234942735
        0x000026f0:    f30d00f2    ....    DCD    4077715698
        0x000026f4:    00f40c00    ....    DCD    15993856
        0x000026f8:    0a00f50b    ....    DCD    167834891
        0x000026fc:    f70900f6    ....    DCD    4144562422
        0x00002700:    00f80800    ....    DCD    16254976
        0x00002704:    0600f907    ....    DCD    100727047
        0x00002708:    fb0500fa    ....    DCD    4211409146
        0x0000270c:    00fc0400    ....    DCD    16516096
        0x00002710:    0200fd03    ....    DCD    33619203
        0x00002714:    ff0100fe    ....    DCD    4278255870
        0x00002718:    0000        ..      DCW    0
    __FUNCTION__
        0x0000271a:    4d54        TM      DCW    19796
        0x0000271c:    495f3152    R1_I    DCD    1230975314
        0x00002720:    61485152    RQHa    DCD    1632129362
        0x00002724:    656c646e    ndle    DCD    1701602414
        0x00002728:    00000072    r...    DCD    114
    .constdata
        0x0000272c:    00b71b00    ....    DCD    12000000
        0x00002730:    00000000    ....    DCD    0
        0x00002734:    00000000    ....    DCD    0
        0x00002738:    01518000    ..Q.    DCD    22118400
        0x0000273c:    00b71b00    ....    DCD    12000000
        0x00002740:    00000000    ....    DCD    0
        0x00002744:    00000000    ....    DCD    0
        0x00002748:    01518000    ..Q.    DCD    22118400
        0x0000274c:    00b71b00    ....    DCD    12000000
        0x00002750:    00000000    ....    DCD    0
        0x00002754:    00000000    ....    DCD    0
        0x00002758:    01518000    ..Q.    DCD    22118400
    .constdata
        0x0000275c:    00000000    ....    DCD    0
        0x00002760:    00000020     ...    DCD    32
        0x00002764:    00000000    ....    DCD    0
        0x00002768:    00000004    ....    DCD    4
        0x0000276c:    0000000c    ....    DCD    12
        0x00002770:    00000024    $...    DCD    36
        0x00002774:    00000000    ....    DCD    0
        0x00002778:    00000004    ....    DCD    4
        0x0000277c:    0000002c    ,...    DCD    44
        0x00002780:    00000000    ....    DCD    0
        0x00002784:    00000000    ....    DCD    0
        0x00002788:    00000004    ....    DCD    4
        0x0000278c:    0000002c    ,...    DCD    44
        0x00002790:    00000000    ....    DCD    0
    .constdata
        0x00002794:    00b71b00    ....    DCD    12000000
        0x00002798:    00008000    ....    DCD    32768
        0x0000279c:    00000000    ....    DCD    0
        0x000027a0:    00000000    ....    DCD    0
        0x000027a4:    00000000    ....    DCD    0
        0x000027a8:    00002710    .'..    DCD    10000
        0x000027ac:    00000000    ....    DCD    0
        0x000027b0:    01518000    ..Q.    DCD    22118400
    Region$$Table$$Base
        0x000027b4:    000027d4    .'..    DCD    10196
        0x000027b8:    20000000    ...     DCD    536870912
        0x000027bc:    00000044    D...    DCD    68
        0x000027c0:    00001072    r...    DCD    4210
        0x000027c4:    00002818    .(..    DCD    10264
        0x000027c8:    20000044    D..     DCD    536870980
        0x000027cc:    0000043c    <...    DCD    1084
        0x000027d0:    00001082    ....    DCD    4226
    Region$$Table$$Limit

** Section #2 'ER_RW' (SHT_PROGBITS) [SHF_ALLOC + SHF_WRITE]
    Size   : 68 bytes (alignment 4)
    Address: 0x20000000


** Section #3 'ER_ZI' (SHT_NOBITS) [SHF_ALLOC + SHF_WRITE]
    Size   : 1084 bytes (alignment 8)
    Address: 0x20000044


** Section #4 '.debug_abbrev' (SHT_PROGBITS)
    Size   : 1476 bytes


** Section #5 '.debug_frame' (SHT_PROGBITS)
    Size   : 2680 bytes


** Section #6 '.debug_info' (SHT_PROGBITS)
    Size   : 32820 bytes


** Section #7 '.debug_line' (SHT_PROGBITS)
    Size   : 13208 bytes


** Section #8 '.debug_loc' (SHT_PROGBITS)
    Size   : 7616 bytes


** Section #9 '.debug_macinfo' (SHT_PROGBITS)
    Size   : 70340 bytes


** Section #10 '.debug_pubnames' (SHT_PROGBITS)
    Size   : 2440 bytes


** Section #11 '.symtab' (SHT_SYMTAB)
    Size   : 7376 bytes (alignment 4)
    String table #12 '.strtab'
    Last local symbol no. 287


** Section #12 '.strtab' (SHT_STRTAB)
    Size   : 5572 bytes


** Section #13 '.note' (SHT_NOTE)
    Size   : 28 bytes (alignment 4)


** Section #14 '.comment' (SHT_PROGBITS)
    Size   : 10284 bytes


** Section #15 '.shstrtab' (SHT_STRTAB)
    Size   : 156 bytes


